Certificate:
    Data:
        Version: 3 (0x2)
        Serial Number: 268435682 (0x100000e2)
    Signature Algorithm: sha1WithRSAEncryption
        Issuer: C=DE, ST=Hessen, O=privacyidea, CN=CA001
        Validity
            Not Before: Sep 30 16:48:06 2016 GMT
            Not After : Sep 30 16:48:06 2017 GMT
        Subject: C=DE, ST=Hessen, O=privacyidea, CN=usercert
        Subject Public Key Info:
            Public Key Algorithm: rsaEncryption
                Public-Key: (2048 bit)
                Modulus:
                    00:dc:2f:d1:5f:29:97:d4:7c:c3:53:c8:30:bd:4b:
                    67:70:2c:24:6b:b8:5e:eb:21:7a:48:12:56:7c:81:
                    5c:48:75:b6:68:eb:f6:f2:98:4e:50:51:d1:7f:6c:
                    73:f3:0a:a7:ae:be:48:5e:e5:d6:e1:d9:2a:7c:32:
                    6e:4e:fd:08:f6:5a:54:49:23:73:c3:b9:07:18:d1:
                    ef:b3:ac:f8:8a:dc:94:96:a4:90:3a:8e:74:df:e6:
                    0d:37:1b:bd:5b:b7:25:1a:56:39:da:6f:91:aa:5e:
                    1c:74:f3:f9:7c:14:01:83:12:65:76:c7:bb:fe:36:
                    5b:95:e9:72:65:83:ed:3e:98:30:71:fa:87:dd:a3:
                    36:5a:30:03:2e:26:e0:61:d1:bf:02:3f:b6:06:1f:
                    4a:89:28:1c:5c:a2:ff:4e:be:94:e6:8c:e0:da:82:
                    f1:9d:29:32:48:30:73:b4:04:f6:42:1e:be:f7:e2:
                    32:32:27:3c:9d:89:2f:70:3e:85:9a:6f:5c:c5:09:
                    c0:8c:32:2f:72:22:c9:d2:95:1f:b6:ac:72:60:72:
                    b7:82:4d:6b:ce:5b:e3:00:d0:d2:2f:58:c6:e0:10:
                    e5:51:ca:4d:3b:2e:e6:7e:ab:84:d6:56:f1:93:35:
                    a0:93:64:26:81:75:2f:91:b5:16:06:38:0b:db:cc:
                    2d:07
                Exponent: 65537 (0x10001)
        X509v3 extensions:
            X509v3 Key Usage: 
                Digital Signature, Key Encipherment
            X509v3 Basic Constraints: 
                CA:FALSE
            Netscape Cert Type: 
                SSL Server
            Netscape Comment: 
                OpenSSL Generated Server Certificate
            X509v3 Subject Key Identifier: 
                FC:14:D1:F0:4B:8D:00:90:F2:F5:B8:71:9E:4E:97:C3:92:54:AD:0B
            X509v3 Authority Key Identifier: 
                keyid:F4:A7:C0:CC:91:46:AF:64:F3:91:F2:27:F8:C8:B2:6F:8A:87:32:73
                DirName:/C=DE/ST=Hessen/O=privacyidea/CN=CA001
                serial:FB:C8:EB:AC:83:CD:12:07

            X509v3 Extended Key Usage: 
                TLS Web Server Authentication
    Signature Algorithm: sha1WithRSAEncryption
         78:05:40:84:9d:52:43:5a:6c:d5:34:45:aa:a7:be:3f:d6:88:
         f8:b1:05:ee:e3:b8:f7:4e:be:a7:81:1c:20:5e:1d:29:64:3f:
         b0:e8:27:3a:4f:a4:24:f0:e4:71:4f:a7:0b:4c:64:fd:68:6e:
         80:4b:97:fd:4f:f4:c7:94:31:7a:17:99:99:41:47:aa:65:f4:
         64:92:4a:29:3f:c3:d2:6e:a5:c6:09:2b:e2:4e:0d:73:9d:98:
         b2:44:76:c7:5a:d9:f5:81:c7:43:d7:81:22:41:ea:44:e6:8e:
         4a:72:5b:08:72:46:8f:3c:9c:7d:d5:d4:2b:fb:f0:65:ed:be:
         c7:0c:54:c2:01:54:29:df:bf:ba:48:3d:d4:cc:e1:6c:a1:c8:
         6d:98:32:1f:02:fa:a3:42:8d:01:a5:cf:f2:40:6d:70:b5:39:
         f4:64:16:07:07:84:1d:68:15:4c:b8:32:be:d6:4b:43:8c:cf:
         51:8e:22:96:c3:7e:4a:40:42:85:13:33:66:c9:34:b8:6b:31:
         2b:58:58:97:e5:85:2e:c4:b0:2c:c2:02:b9:37:73:bb:b3:65:
         c9:1c:b7:6e:36:6f:8c:5a:2f:c5:9a:c1:63:58:84:dc:f5:4b:
         42:f6:cf:03:ea:36:52:2c:f5:d2:b4:e4:52:90:a3:e4:ba:fd:
         b3:f1:5f:f3
-----BEGIN CERTIFICATE-----
MIIEGTCCAwGgAwIBAgIEEAAA4jANBgkqhkiG9w0BAQUFADBEMQswCQYDVQQGEwJE
RTEPMA0GA1UECAwGSGVzc2VuMRQwEgYDVQQKDAtwcml2YWN5aWRlYTEOMAwGA1UE
AwwFQ0EwMDEwHhcNMTYwOTMwMTY0ODA2WhcNMTcwOTMwMTY0ODA2WjBHMQswCQYD
VQQGEwJERTEPMA0GA1UECAwGSGVzc2VuMRQwEgYDVQQKDAtwcml2YWN5aWRlYTER
MA8GA1UEAwwIdXNlcmNlcnQwggEiMA0GCSqGSIb3DQEBAQUAA4IBDwAwggEKAoIB
AQDcL9FfKZfUfMNTyDC9S2dwLCRruF7rIXpIElZ8gVxIdbZo6/bymE5QUdF/bHPz
Cqeuvkhe5dbh2Sp8Mm5O/Qj2WlRJI3PDuQcY0e+zrPiK3JSWpJA6jnTf5g03G71b
tyUaVjnab5GqXhx08/l8FAGDEmV2x7v+NluV6XJlg+0+mDBx+ofdozZaMAMuJuBh
0b8CP7YGH0qJKBxcov9OvpTmjODagvGdKTJIMHO0BPZCHr734jIyJzydiS9wPoWa
b1zFCcCMMi9yIsnSlR+2rHJgcreCTWvOW+MA0NIvWMbgEOVRyk07LuZ+q4TWVvGT
NaCTZCaBdS+RtRYGOAvbzC0HAgMBAAGjggEOMIIBCjALBgNVHQ8EBAMCBaAwCQYD
VR0TBAIwADARBglghkgBhvhCAQEEBAMCBkAwMwYJYIZIAYb4QgENBCYWJE9wZW5T
U0wgR2VuZXJhdGVkIFNlcnZlciBDZXJ0aWZpY2F0ZTAdBgNVHQ4EFgQU/BTR8EuN
AJDy9bhxnk6Xw5JUrQswdAYDVR0jBG0wa4AU9KfAzJFGr2TzkfIn+Miyb4qHMnOh
SKRGMEQxCzAJBgNVBAYTAkRFMQ8wDQYDVQQIDAZIZXNzZW4xFDASBgNVBAoMC3By
aXZhY3lpZGVhMQ4wDAYDVQQDDAVDQTAwMYIJAPvI66yDzRIHMBMGA1UdJQQMMAoG
CCsGAQUFBwMBMA0GCSqGSIb3DQEBBQUAA4IBAQB4BUCEnVJDWmzVNEWqp74/1oj4
sQXu47j3Tr6ngRwgXh0pZD+w6Cc6T6Qk8ORxT6cLTGT9aG6AS5f9T/THlDF6F5mZ
QUeqZfRkkkopP8PSbqXGCSviTg1znZiyRHbHWtn1gcdD14EiQepE5o5KclsIckaP
PJx91dQr+/Bl7b7HDFTCAVQp37+6SD3UzOFsochtmDIfAvqjQo0Bpc/yQG1wtTn0
ZBYHB4QdaBVMuDK+1ktDjM9RjiKWw35KQEKFEzNmyTS4azErWFiX5YUuxLAswgK5
N3O7s2XJHLduNm+MWi/FmsFjWITc9UtC9s8D6jZSLPXStORSkKPkuv2z8V/z
-----END CERTIFICATE-----
