Certificate:
    Data:
        Version: 3 (0x2)
        Serial Number: 268435663 (0x100000cf)
    Signature Algorithm: sha1WithRSAEncryption
        Issuer: C=DE, ST=Hessen, O=privacyidea, CN=CA001
        Validity
            Not Before: Dec 21 12:58:34 2016 GMT
            Not After : Dec 21 12:58:34 2017 GMT
        Subject: CN=selfservice,CN=user,O=realm1/emailAddress=meine
        Subject Public Key Info:
            Public Key Algorithm: rsaEncryption
                Public-Key: (2048 bit)
                Modulus:
                    00:cf:3c:d4:33:0e:12:c4:e6:da:cd:b6:56:a1:1c:
                    26:bb:26:1c:8a:4a:73:a8:58:8a:b6:1e:b3:8b:99:
                    d2:1d:07:c2:92:89:79:c0:69:d8:c8:df:28:61:98:
                    1e:b3:fe:ae:2b:bd:78:a9:f7:6e:47:dc:a3:a0:16:
                    8c:85:02:c1:4e:92:fd:72:6e:f0:c8:03:29:9b:b8:
                    00:6e:c0:83:95:c8:34:20:36:9c:b3:e5:e4:e6:76:
                    73:a3:1a:ad:40:96:e0:53:54:00:ec:76:79:9a:c6:
                    0d:7e:b6:bd:29:ec:83:f3:cb:89:a4:cb:6c:00:ba:
                    0c:c5:78:0f:ff:69:b8:94:f4:04:70:43:3f:d8:9e:
                    d7:a7:fb:5d:ce:75:8e:da:e7:c4:07:b1:9d:de:6f:
                    88:4b:b6:4d:9a:cf:f9:bc:fa:9f:cd:32:6d:f6:3a:
                    0b:0d:23:42:78:ec:97:42:bf:0e:4d:60:56:e1:d3:
                    02:f2:19:cb:84:57:90:e5:70:a1:a2:83:35:86:e2:
                    da:86:9f:f9:8a:c4:79:b3:52:28:da:cb:bb:34:ca:
                    d3:da:91:4a:cf:8d:76:a2:b2:6b:9b:f9:96:fd:09:
                    2a:da:11:23:4d:f0:cb:d6:b2:b1:0e:12:6c:9a:19:
                    65:98:87:ca:e4:ee:24:ce:44:ac:90:8f:9d:1b:c5:
                    2a:9d
                Exponent: 65537 (0x10001)
        X509v3 extensions:
            X509v3 Key Usage: 
                Digital Signature, Key Encipherment
            X509v3 Basic Constraints: 
                CA:FALSE
            Netscape Cert Type: 
                SSL Server
            Netscape Comment: 
                OpenSSL Generated Server Certificate
            X509v3 Subject Key Identifier: 
                4D:07:90:AD:FF:1D:0D:E7:1A:DD:D6:2E:FA:BA:34:CB:AA:1F:24:C6
            X509v3 Authority Key Identifier: 
                keyid:F4:A7:C0:CC:91:46:AF:64:F3:91:F2:27:F8:C8:B2:6F:8A:87:32:73
                DirName:/C=DE/ST=Hessen/O=privacyidea/CN=CA001
                serial:FB:C8:EB:AC:83:CD:12:07

            X509v3 Extended Key Usage: 
                TLS Web Server Authentication
    Signature Algorithm: sha1WithRSAEncryption
         17:00:6f:c2:91:50:35:64:8b:38:3b:bb:de:01:43:e1:fd:79:
         a5:dd:cd:4b:6c:63:ee:44:6a:9e:a3:3c:b2:83:a9:a1:2f:6a:
         f6:d5:a9:3f:32:05:17:06:3c:6c:ec:89:ba:00:4d:8b:a1:3b:
         93:39:9b:43:e5:7b:9b:02:6e:91:76:74:db:78:29:45:88:7c:
         e4:32:7c:b7:b4:16:6f:d0:9a:fc:d9:0a:fb:2b:fa:f5:ed:13:
         cc:09:0a:12:16:57:ec:ce:11:db:b6:93:ae:bc:85:5f:1c:7c:
         6b:41:31:16:48:c1:8a:eb:15:9c:3e:7b:43:6d:33:f2:3b:44:
         b8:c8:53:bb:b7:77:eb:72:2d:e8:7a:8b:8f:eb:4a:4c:7b:f3:
         99:38:7f:ae:81:69:54:e5:16:7b:c4:31:df:39:64:78:b9:55:
         0c:85:eb:03:cd:87:3b:71:36:53:6a:18:c7:ae:a5:e8:b7:18:
         03:96:de:4c:47:f8:69:86:a6:0b:8e:ee:e3:64:34:ab:27:05:
         98:42:30:cf:21:f9:b5:c7:70:f9:1f:a3:71:6d:bc:b7:79:36:
         fc:17:61:ed:cf:4a:df:4d:b3:9e:a7:65:6f:54:79:9a:6d:47:
         5d:7b:81:f2:be:2a:3e:e0:6c:bc:db:4d:ab:38:e2:f6:3b:74:
         36:65:ab:c2
-----BEGIN CERTIFICATE-----
MIIEDzCCAvegAwIBAgIEEAAAzzANBgkqhkiG9w0BAQUFADBEMQswCQYDVQQGEwJE
RTEPMA0GA1UECAwGSGVzc2VuMRQwEgYDVQQKDAtwcml2YWN5aWRlYTEOMAwGA1UE
AwwFQ0EwMDEwHhcNMTYxMjIxMTI1ODM0WhcNMTcxMjIxMTI1ODM0WjA9MSUwIwYD
VQQDDBxzZWxmc2VydmljZSxDTj11c2VyLE89cmVhbG0xMRQwEgYJKoZIhvcNAQkB
FgVtZWluZTCCASIwDQYJKoZIhvcNAQEBBQADggEPADCCAQoCggEBAM881DMOEsTm
2s22VqEcJrsmHIpKc6hYirYes4uZ0h0HwpKJecBp2MjfKGGYHrP+riu9eKn3bkfc
o6AWjIUCwU6S/XJu8MgDKZu4AG7Ag5XINCA2nLPl5OZ2c6MarUCW4FNUAOx2eZrG
DX62vSnsg/PLiaTLbAC6DMV4D/9puJT0BHBDP9ie16f7Xc51jtrnxAexnd5viEu2
TZrP+bz6n80ybfY6Cw0jQnjsl0K/Dk1gVuHTAvIZy4RXkOVwoaKDNYbi2oaf+YrE
ebNSKNrLuzTK09qRSs+NdqKya5v5lv0JKtoRI03wy9aysQ4SbJoZZZiHyuTuJM5E
rJCPnRvFKp0CAwEAAaOCAQ4wggEKMAsGA1UdDwQEAwIFoDAJBgNVHRMEAjAAMBEG
CWCGSAGG+EIBAQQEAwIGQDAzBglghkgBhvhCAQ0EJhYkT3BlblNTTCBHZW5lcmF0
ZWQgU2VydmVyIENlcnRpZmljYXRlMB0GA1UdDgQWBBRNB5Ct/x0N5xrd1i76ujTL
qh8kxjB0BgNVHSMEbTBrgBT0p8DMkUavZPOR8if4yLJviocyc6FIpEYwRDELMAkG
A1UEBhMCREUxDzANBgNVBAgMBkhlc3NlbjEUMBIGA1UECgwLcHJpdmFjeWlkZWEx
DjAMBgNVBAMMBUNBMDAxggkA+8jrrIPNEgcwEwYDVR0lBAwwCgYIKwYBBQUHAwEw
DQYJKoZIhvcNAQEFBQADggEBABcAb8KRUDVkizg7u94BQ+H9eaXdzUtsY+5Eap6j
PLKDqaEvavbVqT8yBRcGPGzsiboATYuhO5M5m0Ple5sCbpF2dNt4KUWIfOQyfLe0
Fm/QmvzZCvsr+vXtE8wJChIWV+zOEdu2k668hV8cfGtBMRZIwYrrFZw+e0NtM/I7
RLjIU7u3d+tyLeh6i4/rSkx785k4f66BaVTlFnvEMd85ZHi5VQyF6wPNhztxNlNq
GMeupei3GAOW3kxH+GmGpguO7uNkNKsnBZhCMM8h+bXHcPkfo3FtvLd5NvwXYe3P
St9Ns56nZW9UeZptR117gfK+Kj7gbLzbTas44vY7dDZlq8I=
-----END CERTIFICATE-----
