Certificate:
    Data:
        Version: 3 (0x2)
        Serial Number: 268435688 (0x100000e8)
    Signature Algorithm: sha1WithRSAEncryption
        Issuer: C=DE, ST=Hessen, O=privacyidea, CN=CA001
        Validity
            Not Before: Sep 27 19:50:05 2016 GMT
            Not After : Sep 27 19:50:05 2017 GMT
        Subject: C=DE, ST=Hessen, O=privacyidea, CN=usercert
        Subject Public Key Info:
            Public Key Algorithm: rsaEncryption
                Public-Key: (2048 bit)
                Modulus:
                    00:dc:2f:d1:5f:29:97:d4:7c:c3:53:c8:30:bd:4b:
                    67:70:2c:24:6b:b8:5e:eb:21:7a:48:12:56:7c:81:
                    5c:48:75:b6:68:eb:f6:f2:98:4e:50:51:d1:7f:6c:
                    73:f3:0a:a7:ae:be:48:5e:e5:d6:e1:d9:2a:7c:32:
                    6e:4e:fd:08:f6:5a:54:49:23:73:c3:b9:07:18:d1:
                    ef:b3:ac:f8:8a:dc:94:96:a4:90:3a:8e:74:df:e6:
                    0d:37:1b:bd:5b:b7:25:1a:56:39:da:6f:91:aa:5e:
                    1c:74:f3:f9:7c:14:01:83:12:65:76:c7:bb:fe:36:
                    5b:95:e9:72:65:83:ed:3e:98:30:71:fa:87:dd:a3:
                    36:5a:30:03:2e:26:e0:61:d1:bf:02:3f:b6:06:1f:
                    4a:89:28:1c:5c:a2:ff:4e:be:94:e6:8c:e0:da:82:
                    f1:9d:29:32:48:30:73:b4:04:f6:42:1e:be:f7:e2:
                    32:32:27:3c:9d:89:2f:70:3e:85:9a:6f:5c:c5:09:
                    c0:8c:32:2f:72:22:c9:d2:95:1f:b6:ac:72:60:72:
                    b7:82:4d:6b:ce:5b:e3:00:d0:d2:2f:58:c6:e0:10:
                    e5:51:ca:4d:3b:2e:e6:7e:ab:84:d6:56:f1:93:35:
                    a0:93:64:26:81:75:2f:91:b5:16:06:38:0b:db:cc:
                    2d:07
                Exponent: 65537 (0x10001)
        X509v3 extensions:
            X509v3 Key Usage: 
                Digital Signature, Key Encipherment
            X509v3 Basic Constraints: 
                CA:FALSE
            Netscape Cert Type: 
                SSL Server
            Netscape Comment: 
                OpenSSL Generated Server Certificate
            X509v3 Subject Key Identifier: 
                FC:14:D1:F0:4B:8D:00:90:F2:F5:B8:71:9E:4E:97:C3:92:54:AD:0B
            X509v3 Authority Key Identifier: 
                keyid:F4:A7:C0:CC:91:46:AF:64:F3:91:F2:27:F8:C8:B2:6F:8A:87:32:73
                DirName:/C=DE/ST=Hessen/O=privacyidea/CN=CA001
                serial:FB:C8:EB:AC:83:CD:12:07

            X509v3 Extended Key Usage: 
                TLS Web Server Authentication
    Signature Algorithm: sha1WithRSAEncryption
         8a:fc:3d:9c:d0:d7:97:dd:0d:63:f2:9c:c4:5d:01:53:6e:d9:
         ff:c0:de:a2:70:78:af:73:d0:fb:28:cd:35:5d:31:6b:ec:9b:
         95:9b:2a:45:97:17:c1:da:32:e8:aa:a9:f7:34:e9:fd:e6:d9:
         c4:3b:6a:5f:ca:bd:f0:9f:fe:85:5f:09:5c:9a:60:5d:97:f7:
         a2:50:08:33:de:1f:a3:e5:67:24:2d:ce:0a:a7:6b:c6:b8:16:
         46:9b:3c:a1:25:a4:a5:9a:df:e4:78:36:71:46:48:37:32:d4:
         03:03:9e:71:84:9c:b6:09:06:f8:35:08:f6:18:39:ae:4d:d7:
         54:9a:96:85:63:17:0f:f5:c2:86:d9:6a:4a:c1:3e:b6:1f:f6:
         3b:28:49:a7:d1:91:3b:f8:56:a9:48:e7:19:47:c1:5c:1e:f0:
         8a:6e:1b:f8:71:b7:c9:fe:e5:9f:f9:5d:b6:3d:75:90:98:45:
         9b:ec:d0:2f:d9:ea:46:71:2b:35:1e:7d:a0:b1:c3:1b:f2:31:
         66:c0:ba:df:14:e7:99:81:27:74:0d:a6:80:92:59:84:66:b6:
         fc:a4:2a:f4:14:d8:c4:12:97:bb:02:ae:5e:98:da:8e:dc:f4:
         8f:aa:b3:57:a6:0e:a0:f6:2a:29:f1:90:2a:6f:da:48:ec:35:
         91:84:6a:d0
-----BEGIN CERTIFICATE-----
MIIEGTCCAwGgAwIBAgIEEAAA6DANBgkqhkiG9w0BAQUFADBEMQswCQYDVQQGEwJE
RTEPMA0GA1UECAwGSGVzc2VuMRQwEgYDVQQKDAtwcml2YWN5aWRlYTEOMAwGA1UE
AwwFQ0EwMDEwHhcNMTYwOTI3MTk1MDA1WhcNMTcwOTI3MTk1MDA1WjBHMQswCQYD
VQQGEwJERTEPMA0GA1UECAwGSGVzc2VuMRQwEgYDVQQKDAtwcml2YWN5aWRlYTER
MA8GA1UEAwwIdXNlcmNlcnQwggEiMA0GCSqGSIb3DQEBAQUAA4IBDwAwggEKAoIB
AQDcL9FfKZfUfMNTyDC9S2dwLCRruF7rIXpIElZ8gVxIdbZo6/bymE5QUdF/bHPz
Cqeuvkhe5dbh2Sp8Mm5O/Qj2WlRJI3PDuQcY0e+zrPiK3JSWpJA6jnTf5g03G71b
tyUaVjnab5GqXhx08/l8FAGDEmV2x7v+NluV6XJlg+0+mDBx+ofdozZaMAMuJuBh
0b8CP7YGH0qJKBxcov9OvpTmjODagvGdKTJIMHO0BPZCHr734jIyJzydiS9wPoWa
b1zFCcCMMi9yIsnSlR+2rHJgcreCTWvOW+MA0NIvWMbgEOVRyk07LuZ+q4TWVvGT
NaCTZCaBdS+RtRYGOAvbzC0HAgMBAAGjggEOMIIBCjALBgNVHQ8EBAMCBaAwCQYD
VR0TBAIwADARBglghkgBhvhCAQEEBAMCBkAwMwYJYIZIAYb4QgENBCYWJE9wZW5T
U0wgR2VuZXJhdGVkIFNlcnZlciBDZXJ0aWZpY2F0ZTAdBgNVHQ4EFgQU/BTR8EuN
AJDy9bhxnk6Xw5JUrQswdAYDVR0jBG0wa4AU9KfAzJFGr2TzkfIn+Miyb4qHMnOh
SKRGMEQxCzAJBgNVBAYTAkRFMQ8wDQYDVQQIDAZIZXNzZW4xFDASBgNVBAoMC3By
aXZhY3lpZGVhMQ4wDAYDVQQDDAVDQTAwMYIJAPvI66yDzRIHMBMGA1UdJQQMMAoG
CCsGAQUFBwMBMA0GCSqGSIb3DQEBBQUAA4IBAQCK/D2c0NeX3Q1j8pzEXQFTbtn/
wN6icHivc9D7KM01XTFr7JuVmypFlxfB2jLoqqn3NOn95tnEO2pfyr3wn/6FXwlc
mmBdl/eiUAgz3h+j5WckLc4Kp2vGuBZGmzyhJaSlmt/keDZxRkg3MtQDA55xhJy2
CQb4NQj2GDmuTddUmpaFYxcP9cKG2WpKwT62H/Y7KEmn0ZE7+FapSOcZR8FcHvCK
bhv4cbfJ/uWf+V22PXWQmEWb7NAv2epGcSs1Hn2gscMb8jFmwLrfFOeZgSd0DaaA
klmEZrb8pCr0FNjEEpe7Aq5emNqO3PSPqrNXpg6g9iop8ZAqb9pI7DWRhGrQ
-----END CERTIFICATE-----
