Certificate:
    Data:
        Version: 3 (0x2)
        Serial Number: 268435701 (0x100000f5)
    Signature Algorithm: sha1WithRSAEncryption
        Issuer: C=DE, ST=Hessen, O=privacyidea, CN=CA001
        Validity
            Not Before: Sep 27 20:17:05 2016 GMT
            Not After : Sep 27 20:17:05 2017 GMT
        Subject: C=DE, ST=Hessen, O=privacyidea, CN=usercert
        Subject Public Key Info:
            Public Key Algorithm: rsaEncryption
                Public-Key: (2048 bit)
                Modulus:
                    00:dc:2f:d1:5f:29:97:d4:7c:c3:53:c8:30:bd:4b:
                    67:70:2c:24:6b:b8:5e:eb:21:7a:48:12:56:7c:81:
                    5c:48:75:b6:68:eb:f6:f2:98:4e:50:51:d1:7f:6c:
                    73:f3:0a:a7:ae:be:48:5e:e5:d6:e1:d9:2a:7c:32:
                    6e:4e:fd:08:f6:5a:54:49:23:73:c3:b9:07:18:d1:
                    ef:b3:ac:f8:8a:dc:94:96:a4:90:3a:8e:74:df:e6:
                    0d:37:1b:bd:5b:b7:25:1a:56:39:da:6f:91:aa:5e:
                    1c:74:f3:f9:7c:14:01:83:12:65:76:c7:bb:fe:36:
                    5b:95:e9:72:65:83:ed:3e:98:30:71:fa:87:dd:a3:
                    36:5a:30:03:2e:26:e0:61:d1:bf:02:3f:b6:06:1f:
                    4a:89:28:1c:5c:a2:ff:4e:be:94:e6:8c:e0:da:82:
                    f1:9d:29:32:48:30:73:b4:04:f6:42:1e:be:f7:e2:
                    32:32:27:3c:9d:89:2f:70:3e:85:9a:6f:5c:c5:09:
                    c0:8c:32:2f:72:22:c9:d2:95:1f:b6:ac:72:60:72:
                    b7:82:4d:6b:ce:5b:e3:00:d0:d2:2f:58:c6:e0:10:
                    e5:51:ca:4d:3b:2e:e6:7e:ab:84:d6:56:f1:93:35:
                    a0:93:64:26:81:75:2f:91:b5:16:06:38:0b:db:cc:
                    2d:07
                Exponent: 65537 (0x10001)
        X509v3 extensions:
            X509v3 Key Usage: 
                Digital Signature, Key Encipherment
            X509v3 Basic Constraints: 
                CA:FALSE
            Netscape Cert Type: 
                SSL Server
            Netscape Comment: 
                OpenSSL Generated Server Certificate
            X509v3 Subject Key Identifier: 
                FC:14:D1:F0:4B:8D:00:90:F2:F5:B8:71:9E:4E:97:C3:92:54:AD:0B
            X509v3 Authority Key Identifier: 
                keyid:F4:A7:C0:CC:91:46:AF:64:F3:91:F2:27:F8:C8:B2:6F:8A:87:32:73
                DirName:/C=DE/ST=Hessen/O=privacyidea/CN=CA001
                serial:FB:C8:EB:AC:83:CD:12:07

            X509v3 Extended Key Usage: 
                TLS Web Server Authentication
    Signature Algorithm: sha1WithRSAEncryption
         5b:e1:be:eb:d0:96:11:6f:46:64:c7:19:14:79:84:5d:bb:57:
         d1:5e:af:73:7a:e9:a7:c6:10:b8:8b:e1:5a:32:76:9d:28:c7:
         58:bc:c2:ea:4a:8c:1f:16:cc:15:7c:28:0e:c4:18:0e:99:0c:
         c6:fb:e7:15:4d:58:92:8b:b8:e4:5f:bb:0f:f8:7c:0f:18:9f:
         66:9f:14:bb:36:55:6a:bb:75:b5:67:39:96:70:b5:13:68:0e:
         12:bb:f5:58:ac:b6:77:c1:eb:6e:06:90:48:c4:0f:f8:b6:73:
         ed:6d:d9:20:a0:66:8b:e4:59:95:b7:1f:77:eb:b9:99:47:a5:
         47:0d:76:1f:af:0c:b9:e8:9c:1d:88:87:4a:9d:af:2b:bf:78:
         49:5d:2e:ff:5d:f3:62:24:5e:de:22:a8:a1:9c:de:ae:ed:8a:
         bb:e7:90:79:48:67:4b:a3:91:f0:50:bc:64:d0:85:1d:ae:c5:
         23:2f:2d:7d:07:06:b8:22:84:af:a7:a0:c2:ee:16:3b:f1:09:
         a6:60:11:df:9e:3f:01:aa:85:e4:f4:00:8f:c8:86:a0:a9:db:
         7c:51:1b:00:a6:94:b0:8a:81:a9:12:0d:99:28:74:e4:43:24:
         2b:22:7b:82:48:a5:7a:1f:6c:67:14:7a:00:ff:0c:98:40:a1:
         b5:ee:bb:08
-----BEGIN CERTIFICATE-----
MIIEGTCCAwGgAwIBAgIEEAAA9TANBgkqhkiG9w0BAQUFADBEMQswCQYDVQQGEwJE
RTEPMA0GA1UECAwGSGVzc2VuMRQwEgYDVQQKDAtwcml2YWN5aWRlYTEOMAwGA1UE
AwwFQ0EwMDEwHhcNMTYwOTI3MjAxNzA1WhcNMTcwOTI3MjAxNzA1WjBHMQswCQYD
VQQGEwJERTEPMA0GA1UECAwGSGVzc2VuMRQwEgYDVQQKDAtwcml2YWN5aWRlYTER
MA8GA1UEAwwIdXNlcmNlcnQwggEiMA0GCSqGSIb3DQEBAQUAA4IBDwAwggEKAoIB
AQDcL9FfKZfUfMNTyDC9S2dwLCRruF7rIXpIElZ8gVxIdbZo6/bymE5QUdF/bHPz
Cqeuvkhe5dbh2Sp8Mm5O/Qj2WlRJI3PDuQcY0e+zrPiK3JSWpJA6jnTf5g03G71b
tyUaVjnab5GqXhx08/l8FAGDEmV2x7v+NluV6XJlg+0+mDBx+ofdozZaMAMuJuBh
0b8CP7YGH0qJKBxcov9OvpTmjODagvGdKTJIMHO0BPZCHr734jIyJzydiS9wPoWa
b1zFCcCMMi9yIsnSlR+2rHJgcreCTWvOW+MA0NIvWMbgEOVRyk07LuZ+q4TWVvGT
NaCTZCaBdS+RtRYGOAvbzC0HAgMBAAGjggEOMIIBCjALBgNVHQ8EBAMCBaAwCQYD
VR0TBAIwADARBglghkgBhvhCAQEEBAMCBkAwMwYJYIZIAYb4QgENBCYWJE9wZW5T
U0wgR2VuZXJhdGVkIFNlcnZlciBDZXJ0aWZpY2F0ZTAdBgNVHQ4EFgQU/BTR8EuN
AJDy9bhxnk6Xw5JUrQswdAYDVR0jBG0wa4AU9KfAzJFGr2TzkfIn+Miyb4qHMnOh
SKRGMEQxCzAJBgNVBAYTAkRFMQ8wDQYDVQQIDAZIZXNzZW4xFDASBgNVBAoMC3By
aXZhY3lpZGVhMQ4wDAYDVQQDDAVDQTAwMYIJAPvI66yDzRIHMBMGA1UdJQQMMAoG
CCsGAQUFBwMBMA0GCSqGSIb3DQEBBQUAA4IBAQBb4b7r0JYRb0ZkxxkUeYRdu1fR
Xq9zeumnxhC4i+FaMnadKMdYvMLqSowfFswVfCgOxBgOmQzG++cVTViSi7jkX7sP
+HwPGJ9mnxS7NlVqu3W1ZzmWcLUTaA4Su/VYrLZ3wetuBpBIxA/4tnPtbdkgoGaL
5FmVtx9367mZR6VHDXYfrwy56JwdiIdKna8rv3hJXS7/XfNiJF7eIqihnN6u7Yq7
55B5SGdLo5HwULxk0IUdrsUjLy19Bwa4IoSvp6DC7hY78QmmYBHfnj8BqoXk9ACP
yIagqdt8URsAppSwioGpEg2ZKHTkQyQrInuCSKV6H2xnFHoA/wyYQKG17rsI
-----END CERTIFICATE-----
