Certificate:
    Data:
        Version: 3 (0x2)
        Serial Number: 268435662 (0x100000ce)
    Signature Algorithm: sha1WithRSAEncryption
        Issuer: C=DE, ST=Hessen, O=privacyidea, CN=CA001
        Validity
            Not Before: Dec 21 12:49:30 2016 GMT
            Not After : Dec 21 12:49:30 2017 GMT
        Subject: OU=realm1, CN=cornelius/emailAddress=user@localhost.localdomain
        Subject Public Key Info:
            Public Key Algorithm: rsaEncryption
                Public-Key: (2048 bit)
                Modulus:
                    00:b4:bc:27:4d:5e:65:da:20:68:f8:9a:13:3f:b4:
                    d6:cd:1b:9c:ea:18:36:83:7e:dd:66:27:f1:9e:c9:
                    3d:e8:b0:b1:3d:76:4f:e2:44:c4:39:e8:1d:35:6f:
                    f8:9f:bc:52:2e:4f:88:ac:d1:6d:69:26:1f:3e:67:
                    57:72:f9:60:0d:72:2b:a3:ad:e2:5d:51:51:8c:5e:
                    bf:fe:38:56:6e:e5:d1:fd:b0:20:a4:98:11:7d:51:
                    1d:b6:c5:90:7a:e9:9a:54:35:11:20:90:39:61:4b:
                    fa:8a:e5:23:b7:a6:1b:a5:fa:58:17:9b:95:9d:27:
                    93:41:b0:86:b6:71:51:28:74:fc:01:1e:18:aa:d6:
                    71:4e:e7:b6:e0:ee:ae:7e:5d:67:10:e2:be:ad:0b:
                    d6:33:f8:81:b4:b7:0c:f8:c8:eb:7c:b9:0d:c2:d3:
                    96:5e:5a:84:84:4a:85:8c:ce:f7:f6:c8:a1:3a:0d:
                    a1:7b:31:a2:f2:67:86:6a:9c:0b:4e:bf:3d:bb:71:
                    4c:1b:be:43:80:be:43:4c:25:b0:c9:b6:13:51:2e:
                    ef:30:22:ae:d8:95:e5:06:7f:e5:ec:6e:c4:00:8f:
                    99:27:5f:51:60:06:f5:72:12:a4:e2:7e:c8:c6:fb:
                    07:88:6d:58:4c:92:54:96:e1:ae:d2:17:ee:ce:32:
                    eb:f9
                Exponent: 65537 (0x10001)
        X509v3 extensions:
            X509v3 Key Usage: 
                Digital Signature, Key Encipherment
            X509v3 Basic Constraints: 
                CA:FALSE
            Netscape Cert Type: 
                SSL Server
            Netscape Comment: 
                OpenSSL Generated Server Certificate
            X509v3 Subject Key Identifier: 
                D7:89:29:BA:7E:3F:66:60:E9:FF:55:2F:92:4D:2A:1D:E2:1B:89:AD
            X509v3 Authority Key Identifier: 
                keyid:F4:A7:C0:CC:91:46:AF:64:F3:91:F2:27:F8:C8:B2:6F:8A:87:32:73
                DirName:/C=DE/ST=Hessen/O=privacyidea/CN=CA001
                serial:FB:C8:EB:AC:83:CD:12:07

            X509v3 Extended Key Usage: 
                TLS Web Server Authentication
    Signature Algorithm: sha1WithRSAEncryption
         57:bc:35:0a:1d:29:73:e0:09:e9:ab:a0:a7:7a:9e:88:b0:f1:
         7a:fe:75:b1:d5:36:ce:28:78:28:99:56:71:71:52:07:59:b8:
         fa:5f:fa:81:73:cb:87:87:a9:65:62:5a:a2:03:d1:6f:64:c8:
         f3:c7:74:e0:7c:ba:c1:65:76:fc:b8:d0:96:c6:2b:0b:c6:5b:
         0e:0a:85:4b:68:29:68:48:41:ea:5d:3b:e8:64:45:af:27:7b:
         bd:ca:e9:f7:71:f8:e1:a6:73:58:55:cb:2e:db:e4:e3:2c:b6:
         48:84:12:39:59:c0:4d:8e:a3:c8:7a:08:61:97:d5:b6:0a:ec:
         51:3b:21:ac:21:dd:82:7f:ae:a9:0d:e3:f9:9e:93:88:15:bb:
         37:8d:dc:c3:2f:12:1f:90:b9:12:0b:95:6c:04:b6:dc:34:ba:
         9f:61:5c:6a:cf:a4:84:15:a3:57:9b:a3:30:5f:28:1c:d8:48:
         38:3b:95:42:d4:f9:70:6b:77:05:f4:89:fc:27:d4:7a:bf:11:
         c1:85:06:17:60:3d:c0:32:96:0a:cf:b5:66:91:37:bc:82:ac:
         11:5d:82:20:20:38:cc:3a:88:2e:e2:d4:bc:dd:19:a0:08:8e:
         73:46:bb:17:a7:19:4c:f3:60:cc:b0:79:d7:be:34:0a:52:cc:
         1e:a8:66:5b
-----BEGIN CERTIFICATE-----
MIIEIjCCAwqgAwIBAgIEEAAAzjANBgkqhkiG9w0BAQUFADBEMQswCQYDVQQGEwJE
RTEPMA0GA1UECAwGSGVzc2VuMRQwEgYDVQQKDAtwcml2YWN5aWRlYTEOMAwGA1UE
AwwFQ0EwMDEwHhcNMTYxMjIxMTI0OTMwWhcNMTcxMjIxMTI0OTMwWjBQMQ8wDQYD
VQQLDAZyZWFsbTExEjAQBgNVBAMMCWNvcm5lbGl1czEpMCcGCSqGSIb3DQEJARYa
dXNlckBsb2NhbGhvc3QubG9jYWxkb21haW4wggEiMA0GCSqGSIb3DQEBAQUAA4IB
DwAwggEKAoIBAQC0vCdNXmXaIGj4mhM/tNbNG5zqGDaDft1mJ/GeyT3osLE9dk/i
RMQ56B01b/ifvFIuT4is0W1pJh8+Z1dy+WANciujreJdUVGMXr/+OFZu5dH9sCCk
mBF9UR22xZB66ZpUNREgkDlhS/qK5SO3phul+lgXm5WdJ5NBsIa2cVEodPwBHhiq
1nFO57bg7q5+XWcQ4r6tC9Yz+IG0twz4yOt8uQ3C05ZeWoSESoWMzvf2yKE6DaF7
MaLyZ4ZqnAtOvz27cUwbvkOAvkNMJbDJthNRLu8wIq7YleUGf+XsbsQAj5knX1Fg
BvVyEqTifsjG+weIbVhMklSW4a7SF+7OMuv5AgMBAAGjggEOMIIBCjALBgNVHQ8E
BAMCBaAwCQYDVR0TBAIwADARBglghkgBhvhCAQEEBAMCBkAwMwYJYIZIAYb4QgEN
BCYWJE9wZW5TU0wgR2VuZXJhdGVkIFNlcnZlciBDZXJ0aWZpY2F0ZTAdBgNVHQ4E
FgQU14kpun4/ZmDp/1Uvkk0qHeIbia0wdAYDVR0jBG0wa4AU9KfAzJFGr2TzkfIn
+Miyb4qHMnOhSKRGMEQxCzAJBgNVBAYTAkRFMQ8wDQYDVQQIDAZIZXNzZW4xFDAS
BgNVBAoMC3ByaXZhY3lpZGVhMQ4wDAYDVQQDDAVDQTAwMYIJAPvI66yDzRIHMBMG
A1UdJQQMMAoGCCsGAQUFBwMBMA0GCSqGSIb3DQEBBQUAA4IBAQBXvDUKHSlz4Anp
q6Cnep6IsPF6/nWx1TbOKHgomVZxcVIHWbj6X/qBc8uHh6llYlqiA9FvZMjzx3Tg
fLrBZXb8uNCWxisLxlsOCoVLaCloSEHqXTvoZEWvJ3u9yun3cfjhpnNYVcsu2+Tj
LLZIhBI5WcBNjqPIeghhl9W2CuxROyGsId2Cf66pDeP5npOIFbs3jdzDLxIfkLkS
C5VsBLbcNLqfYVxqz6SEFaNXm6MwXygc2Eg4O5VC1Plwa3cF9In8J9R6vxHBhQYX
YD3AMpYKz7VmkTe8gqwRXYIgIDjMOogu4tS83RmgCI5zRrsXpxlM82DMsHnXvjQK
UsweqGZb
-----END CERTIFICATE-----
