Certificate:
    Data:
        Version: 3 (0x2)
        Serial Number: 268435660 (0x100000cc)
    Signature Algorithm: sha1WithRSAEncryption
        Issuer: C=DE, ST=Hessen, O=privacyidea, CN=CA001
        Validity
            Not Before: Dec 21 12:44:53 2016 GMT
            Not After : Dec 21 12:44:53 2017 GMT
        Subject: CN=Steve Test/emailAddress=steve@openssl.org
        Subject Public Key Info:
            Public Key Algorithm: rsaEncryption
                Public-Key: (2048 bit)
                Modulus:
                    00:d2:81:89:20:51:48:0f:73:f4:11:32:24:d5:1f:
                    1c:fd:5c:f5:b6:e6:c5:f0:52:81:dc:d2:af:66:4a:
                    7c:93:31:61:5c:af:d1:6d:06:70:03:60:7c:72:0c:
                    88:dd:49:cd:9e:02:6c:d2:5a:d7:53:0f:f3:da:be:
                    69:64:b5:0f:0c:00:e3:b3:50:47:a3:b3:9b:ba:13:
                    50:d6:58:5a:4b:ab:39:e0:11:ca:0a:27:67:03:78:
                    22:66:6d:92:1e:1b:5c:49:ae:e6:6b:d1:8e:3b:9d:
                    06:d3:c6:ac:4d:53:43:10:ab:e8:96:c1:87:82:97:
                    99:8f:20:d3:99:12:37:31:84:e1:8a:ff:29:03:5f:
                    22:90:3e:7f:9b:e0:20:c1:ad:dc:ae:4c:39:1a:31:
                    96:17:02:8c:b2:d9:b4:0d:20:12:9b:7d:86:54:fd:
                    33:fd:c1:2a:62:46:f8:60:96:cf:6e:01:6f:22:df:
                    13:47:e7:97:ec:05:72:23:a3:62:f8:fa:ef:ac:9c:
                    72:f0:37:cb:2f:37:cf:90:a8:27:51:86:c6:d7:78:
                    08:8f:7e:25:a2:15:70:a2:fb:1c:b6:15:5e:a0:97:
                    8b:81:4c:09:28:8a:27:3b:94:bc:71:db:5b:71:37:
                    9a:2b:16:e0:6f:b5:c9:f5:4b:4f:20:ba:65:cf:af:
                    ad:ad
                Exponent: 65537 (0x10001)
        X509v3 extensions:
            X509v3 Key Usage: 
                Digital Signature, Key Encipherment
            X509v3 Basic Constraints: 
                CA:FALSE
            Netscape Cert Type: 
                SSL Server
            Netscape Comment: 
                OpenSSL Generated Server Certificate
            X509v3 Subject Key Identifier: 
                E5:25:6D:3E:AF:0D:DD:3F:4C:F2:45:19:39:D5:14:DB:7E:9C:C0:AD
            X509v3 Authority Key Identifier: 
                keyid:F4:A7:C0:CC:91:46:AF:64:F3:91:F2:27:F8:C8:B2:6F:8A:87:32:73
                DirName:/C=DE/ST=Hessen/O=privacyidea/CN=CA001
                serial:FB:C8:EB:AC:83:CD:12:07

            X509v3 Extended Key Usage: 
                TLS Web Server Authentication
    Signature Algorithm: sha1WithRSAEncryption
         9d:d7:fc:ed:1b:9d:fb:69:45:2c:85:72:c8:47:c6:28:ee:08:
         d2:24:63:f7:22:a1:4e:81:b0:da:da:de:5d:f1:c0:09:be:85:
         25:af:1f:df:76:c1:d7:8a:37:e0:ef:2a:22:1f:4a:9f:36:a7:
         2f:8a:0c:eb:c7:2b:f3:4a:62:b2:1e:41:a2:c1:e3:5b:db:7b:
         5f:6c:0d:54:1b:f5:61:f2:7b:f0:d5:7a:3a:3c:fd:bd:1e:ae:
         b6:70:70:c4:d8:80:d5:2b:78:69:00:a6:6f:f0:81:d6:43:3b:
         e6:e2:55:89:ca:83:31:a9:61:1f:39:10:a0:de:2d:c0:9b:83:
         ca:00:5a:3d:d9:ec:21:f4:ed:3a:ff:d2:42:e7:96:95:3b:9c:
         21:05:91:bf:ae:a0:a0:a0:a3:5a:f6:a5:8a:57:c1:b0:2f:f6:
         f5:a1:b5:6f:25:ef:62:e0:2d:f5:4b:ab:5a:24:6b:88:c7:ed:
         d2:9b:44:33:5d:4d:15:ec:25:69:bf:2f:99:ef:20:5e:59:6f:
         10:61:4c:17:79:44:9b:0a:28:38:a4:ac:36:c7:45:95:97:0e:
         a1:31:69:b2:35:0d:fd:20:29:cf:24:02:de:2f:c1:ed:03:cb:
         6a:5a:ff:0d:77:c5:f6:57:cc:fb:e1:5e:49:b2:a1:f3:a1:13:
         04:ba:2e:af
-----BEGIN CERTIFICATE-----
MIIECTCCAvGgAwIBAgIEEAAAzDANBgkqhkiG9w0BAQUFADBEMQswCQYDVQQGEwJE
RTEPMA0GA1UECAwGSGVzc2VuMRQwEgYDVQQKDAtwcml2YWN5aWRlYTEOMAwGA1UE
AwwFQ0EwMDEwHhcNMTYxMjIxMTI0NDUzWhcNMTcxMjIxMTI0NDUzWjA3MRMwEQYD
VQQDDApTdGV2ZSBUZXN0MSAwHgYJKoZIhvcNAQkBFhFzdGV2ZUBvcGVuc3NsLm9y
ZzCCASIwDQYJKoZIhvcNAQEBBQADggEPADCCAQoCggEBANKBiSBRSA9z9BEyJNUf
HP1c9bbmxfBSgdzSr2ZKfJMxYVyv0W0GcANgfHIMiN1JzZ4CbNJa11MP89q+aWS1
DwwA47NQR6Ozm7oTUNZYWkurOeARygonZwN4ImZtkh4bXEmu5mvRjjudBtPGrE1T
QxCr6JbBh4KXmY8g05kSNzGE4Yr/KQNfIpA+f5vgIMGt3K5MORoxlhcCjLLZtA0g
Ept9hlT9M/3BKmJG+GCWz24BbyLfE0fnl+wFciOjYvj676yccvA3yy83z5CoJ1GG
xtd4CI9+JaIVcKL7HLYVXqCXi4FMCSiKJzuUvHHbW3E3misW4G+1yfVLTyC6Zc+v
ra0CAwEAAaOCAQ4wggEKMAsGA1UdDwQEAwIFoDAJBgNVHRMEAjAAMBEGCWCGSAGG
+EIBAQQEAwIGQDAzBglghkgBhvhCAQ0EJhYkT3BlblNTTCBHZW5lcmF0ZWQgU2Vy
dmVyIENlcnRpZmljYXRlMB0GA1UdDgQWBBTlJW0+rw3dP0zyRRk51RTbfpzArTB0
BgNVHSMEbTBrgBT0p8DMkUavZPOR8if4yLJviocyc6FIpEYwRDELMAkGA1UEBhMC
REUxDzANBgNVBAgMBkhlc3NlbjEUMBIGA1UECgwLcHJpdmFjeWlkZWExDjAMBgNV
BAMMBUNBMDAxggkA+8jrrIPNEgcwEwYDVR0lBAwwCgYIKwYBBQUHAwEwDQYJKoZI
hvcNAQEFBQADggEBAJ3X/O0bnftpRSyFcshHxijuCNIkY/cioU6BsNra3l3xwAm+
hSWvH992wdeKN+DvKiIfSp82py+KDOvHK/NKYrIeQaLB41vbe19sDVQb9WHye/DV
ejo8/b0errZwcMTYgNUreGkApm/wgdZDO+biVYnKgzGpYR85EKDeLcCbg8oAWj3Z
7CH07Tr/0kLnlpU7nCEFkb+uoKCgo1r2pYpXwbAv9vWhtW8l72LgLfVLq1oka4jH
7dKbRDNdTRXsJWm/L5nvIF5ZbxBhTBd5RJsKKDikrDbHRZWXDqExabI1Df0gKc8k
At4vwe0Dy2pa/w13xfZXzPvhXkmyofOhEwS6Lq8=
-----END CERTIFICATE-----
