Certificate:
    Data:
        Version: 3 (0x2)
        Serial Number: 268435706 (0x100000fa)
    Signature Algorithm: sha1WithRSAEncryption
        Issuer: C=DE, ST=Hessen, O=privacyidea, CN=CA001
        Validity
            Not Before: Apr 26 13:13:33 2016 GMT
            Not After : Apr 26 13:13:33 2017 GMT
        Subject: C=DE, ST=Hessen, O=privacyidea, CN=requester.localdomain
        Subject Public Key Info:
            Public Key Algorithm: rsaEncryption
                Public-Key: (2048 bit)
                Modulus:
                    00:cd:be:14:4f:fa:ce:01:3f:42:22:1b:1d:9c:af:
                    dd:92:d2:7f:db:6c:b7:3e:39:43:43:6b:13:03:f1:
                    05:f4:07:74:bc:76:69:28:0b:af:19:8e:d7:fc:e3:
                    cd:c6:58:f2:ca:7f:08:6d:53:fc:07:02:44:24:c6:
                    b4:34:4c:8c:04:fe:33:0e:40:e2:20:ba:02:73:5a:
                    f7:f5:4f:63:6e:cc:c6:b6:df:54:1d:37:39:7d:51:
                    36:26:5f:bd:dc:3f:a8:8b:6b:a2:ae:b6:9d:d6:21:
                    e7:df:41:b8:7a:28:2a:68:48:ca:a8:2d:ed:e1:e9:
                    46:5e:5a:72:6d:b4:84:38:87:91:fd:94:11:0b:28:
                    84:c6:c2:2f:2a:fb:01:f9:36:7a:09:75:d1:33:88:
                    3c:73:41:5b:c8:bf:94:89:70:a1:f0:c0:b9:2e:50:
                    53:1e:b1:17:64:69:f4:2d:81:e0:a9:0d:0e:32:e9:
                    ba:55:8a:85:f1:1b:6f:49:79:b4:7f:88:c3:0d:3e:
                    54:88:9b:3d:1f:38:8c:04:f3:ee:6a:63:2b:f5:c6:
                    db:b4:83:aa:c4:78:41:3a:7d:4b:e1:c8:3e:71:ca:
                    1b:61:59:ea:c6:c4:ca:32:5e:c9:e9:bf:12:29:e6:
                    c6:c3:63:fe:a0:55:da:7a:f1:60:98:4d:26:ed:fa:
                    70:2d
                Exponent: 65537 (0x10001)
        X509v3 extensions:
            X509v3 Key Usage: 
                Digital Signature, Key Encipherment
            X509v3 Basic Constraints: 
                CA:FALSE
            Netscape Cert Type: 
                SSL Server
            Netscape Comment: 
                OpenSSL Generated Server Certificate
            X509v3 Subject Key Identifier: 
                53:3F:ED:5D:09:07:B3:65:7B:AB:45:C9:24:5B:09:77:80:0A:96:ED
            X509v3 Authority Key Identifier: 
                keyid:F4:A7:C0:CC:91:46:AF:64:F3:91:F2:27:F8:C8:B2:6F:8A:87:32:73
                DirName:/C=DE/ST=Hessen/O=privacyidea/CN=CA001
                serial:FB:C8:EB:AC:83:CD:12:07

            X509v3 Extended Key Usage: 
                TLS Web Server Authentication
    Signature Algorithm: sha1WithRSAEncryption
         59:84:05:27:20:31:1b:1d:7d:96:bf:b9:50:33:aa:e8:d8:84:
         75:bb:63:b5:9d:d3:45:8d:d4:36:e0:62:d1:17:eb:b4:d4:da:
         e8:cb:3b:b6:11:25:51:65:cd:b1:1c:58:d0:53:37:a1:6d:4c:
         51:82:bc:ec:86:c7:c8:e0:4c:0f:42:7b:b2:bb:db:60:46:a8:
         5d:c7:9e:5b:00:b6:5a:a0:4c:cf:ca:9a:a6:f0:98:0a:b7:b6:
         a1:44:37:2f:f9:21:38:94:ce:9e:2a:d3:56:b5:bd:ee:ca:40:
         0e:b1:c9:65:cc:97:f4:36:17:84:8a:9b:9e:6a:3e:71:b6:9d:
         d4:1e:42:73:be:e7:01:6f:cc:15:9f:07:04:2b:e7:20:d8:9c:
         4d:96:33:3f:9f:33:29:d0:cc:d9:24:0e:3e:eb:8e:2f:eb:37:
         73:5f:89:1b:74:c1:1d:ae:92:f8:52:ae:b5:6f:d8:2f:6d:55:
         44:45:5c:7f:db:27:df:87:67:97:13:43:77:16:e9:87:f0:95:
         58:fd:78:9c:c4:f1:57:40:27:99:ee:bd:2d:30:75:22:29:9e:
         13:18:a3:2f:ff:ac:bc:46:04:be:fe:0a:3f:74:6e:59:ab:5b:
         8f:d2:88:94:88:c7:f1:9a:58:82:d8:c2:f7:0a:f1:c6:54:bb:
         8a:76:ae:17
-----BEGIN CERTIFICATE-----
MIIEJjCCAw6gAwIBAgIEEAAA+jANBgkqhkiG9w0BAQUFADBEMQswCQYDVQQGEwJE
RTEPMA0GA1UECAwGSGVzc2VuMRQwEgYDVQQKDAtwcml2YWN5aWRlYTEOMAwGA1UE
AwwFQ0EwMDEwHhcNMTYwNDI2MTMxMzMzWhcNMTcwNDI2MTMxMzMzWjBUMQswCQYD
VQQGEwJERTEPMA0GA1UECAwGSGVzc2VuMRQwEgYDVQQKDAtwcml2YWN5aWRlYTEe
MBwGA1UEAwwVcmVxdWVzdGVyLmxvY2FsZG9tYWluMIIBIjANBgkqhkiG9w0BAQEF
AAOCAQ8AMIIBCgKCAQEAzb4UT/rOAT9CIhsdnK/dktJ/22y3PjlDQ2sTA/EF9Ad0
vHZpKAuvGY7X/OPNxljyyn8IbVP8BwJEJMa0NEyMBP4zDkDiILoCc1r39U9jbszG
tt9UHTc5fVE2Jl+93D+oi2uirrad1iHn30G4eigqaEjKqC3t4elGXlpybbSEOIeR
/ZQRCyiExsIvKvsB+TZ6CXXRM4g8c0FbyL+UiXCh8MC5LlBTHrEXZGn0LYHgqQ0O
Mum6VYqF8RtvSXm0f4jDDT5UiJs9HziMBPPuamMr9cbbtIOqxHhBOn1L4cg+ccob
YVnqxsTKMl7J6b8SKebGw2P+oFXaevFgmE0m7fpwLQIDAQABo4IBDjCCAQowCwYD
VR0PBAQDAgWgMAkGA1UdEwQCMAAwEQYJYIZIAYb4QgEBBAQDAgZAMDMGCWCGSAGG
+EIBDQQmFiRPcGVuU1NMIEdlbmVyYXRlZCBTZXJ2ZXIgQ2VydGlmaWNhdGUwHQYD
VR0OBBYEFFM/7V0JB7Nle6tFySRbCXeACpbtMHQGA1UdIwRtMGuAFPSnwMyRRq9k
85HyJ/jIsm+KhzJzoUikRjBEMQswCQYDVQQGEwJERTEPMA0GA1UECAwGSGVzc2Vu
MRQwEgYDVQQKDAtwcml2YWN5aWRlYTEOMAwGA1UEAwwFQ0EwMDGCCQD7yOusg80S
BzATBgNVHSUEDDAKBggrBgEFBQcDATANBgkqhkiG9w0BAQUFAAOCAQEAWYQFJyAx
Gx19lr+5UDOq6NiEdbtjtZ3TRY3UNuBi0RfrtNTa6Ms7thElUWXNsRxY0FM3oW1M
UYK87IbHyOBMD0J7srvbYEaoXceeWwC2WqBMz8qapvCYCre2oUQ3L/khOJTOnirT
VrW97spADrHJZcyX9DYXhIqbnmo+cbad1B5Cc77nAW/MFZ8HBCvnINicTZYzP58z
KdDM2SQOPuuOL+s3c1+JG3TBHa6S+FKutW/YL21VREVcf9sn34dnlxNDdxbph/CV
WP14nMTxV0Anme69LTB1IimeExijL/+svEYEvv4KP3RuWatbj9KIlIjH8ZpYgtjC
9wrxxlS7inauFw==
-----END CERTIFICATE-----
