Certificate:
    Data:
        Version: 3 (0x2)
        Serial Number: 268435689 (0x100000e9)
    Signature Algorithm: sha1WithRSAEncryption
        Issuer: C=DE, ST=Hessen, O=privacyidea, CN=CA001
        Validity
            Not Before: Sep 27 19:50:05 2016 GMT
            Not After : Sep 27 19:50:05 2017 GMT
        Subject: CN=Steve Test/emailAddress=steve@openssl.org
        Subject Public Key Info:
            Public Key Algorithm: rsaEncryption
                Public-Key: (2048 bit)
                Modulus:
                    00:d2:81:89:20:51:48:0f:73:f4:11:32:24:d5:1f:
                    1c:fd:5c:f5:b6:e6:c5:f0:52:81:dc:d2:af:66:4a:
                    7c:93:31:61:5c:af:d1:6d:06:70:03:60:7c:72:0c:
                    88:dd:49:cd:9e:02:6c:d2:5a:d7:53:0f:f3:da:be:
                    69:64:b5:0f:0c:00:e3:b3:50:47:a3:b3:9b:ba:13:
                    50:d6:58:5a:4b:ab:39:e0:11:ca:0a:27:67:03:78:
                    22:66:6d:92:1e:1b:5c:49:ae:e6:6b:d1:8e:3b:9d:
                    06:d3:c6:ac:4d:53:43:10:ab:e8:96:c1:87:82:97:
                    99:8f:20:d3:99:12:37:31:84:e1:8a:ff:29:03:5f:
                    22:90:3e:7f:9b:e0:20:c1:ad:dc:ae:4c:39:1a:31:
                    96:17:02:8c:b2:d9:b4:0d:20:12:9b:7d:86:54:fd:
                    33:fd:c1:2a:62:46:f8:60:96:cf:6e:01:6f:22:df:
                    13:47:e7:97:ec:05:72:23:a3:62:f8:fa:ef:ac:9c:
                    72:f0:37:cb:2f:37:cf:90:a8:27:51:86:c6:d7:78:
                    08:8f:7e:25:a2:15:70:a2:fb:1c:b6:15:5e:a0:97:
                    8b:81:4c:09:28:8a:27:3b:94:bc:71:db:5b:71:37:
                    9a:2b:16:e0:6f:b5:c9:f5:4b:4f:20:ba:65:cf:af:
                    ad:ad
                Exponent: 65537 (0x10001)
        X509v3 extensions:
            X509v3 Key Usage: 
                Digital Signature, Key Encipherment
            X509v3 Basic Constraints: 
                CA:FALSE
            Netscape Cert Type: 
                SSL Server
            Netscape Comment: 
                OpenSSL Generated Server Certificate
            X509v3 Subject Key Identifier: 
                E5:25:6D:3E:AF:0D:DD:3F:4C:F2:45:19:39:D5:14:DB:7E:9C:C0:AD
            X509v3 Authority Key Identifier: 
                keyid:F4:A7:C0:CC:91:46:AF:64:F3:91:F2:27:F8:C8:B2:6F:8A:87:32:73
                DirName:/C=DE/ST=Hessen/O=privacyidea/CN=CA001
                serial:FB:C8:EB:AC:83:CD:12:07

            X509v3 Extended Key Usage: 
                TLS Web Server Authentication
    Signature Algorithm: sha1WithRSAEncryption
         6d:3c:f6:0b:75:e2:56:f6:88:29:73:47:bf:78:bf:5e:ac:34:
         b1:ea:b6:3b:02:52:ab:db:f8:fa:1f:60:b9:76:79:3e:23:1b:
         2a:44:3f:37:40:06:ab:43:bf:e8:f1:c4:d0:99:e5:ca:d3:ff:
         ad:d7:82:6f:3f:21:42:97:4a:e0:36:da:cc:d5:fc:f4:e0:f9:
         a2:f8:88:cb:ef:c1:77:77:23:93:3e:34:29:7a:1e:95:79:24:
         48:94:f0:c5:5d:3f:32:7f:c9:d6:cc:46:d0:2c:82:06:e5:64:
         58:48:d0:0c:9f:ef:8b:41:2c:ba:72:93:09:dd:87:d0:ad:fd:
         07:7c:73:fa:17:7b:4d:ac:d0:9e:3c:ba:e8:49:76:bb:b6:10:
         bf:0e:b5:36:1f:43:8a:98:99:ef:2a:3e:bf:50:08:ea:1c:08:
         0c:16:8f:35:c7:83:7c:e4:ad:e5:53:f0:0f:16:2e:13:ea:7c:
         32:87:2b:a2:8c:ff:07:17:d1:70:5e:2e:bf:0e:8c:13:45:a9:
         3d:fd:62:77:e9:0b:80:0b:7b:83:9e:23:7a:72:2f:3d:09:d4:
         e0:4e:68:c0:6f:be:cf:3f:a7:57:a5:b9:50:93:7b:4f:0c:47:
         d8:f4:f6:a0:6a:5b:25:bc:3b:d6:2c:dc:a2:f3:ad:c0:84:b2:
         8e:e1:01:08
-----BEGIN CERTIFICATE-----
MIIECTCCAvGgAwIBAgIEEAAA6TANBgkqhkiG9w0BAQUFADBEMQswCQYDVQQGEwJE
RTEPMA0GA1UECAwGSGVzc2VuMRQwEgYDVQQKDAtwcml2YWN5aWRlYTEOMAwGA1UE
AwwFQ0EwMDEwHhcNMTYwOTI3MTk1MDA1WhcNMTcwOTI3MTk1MDA1WjA3MRMwEQYD
VQQDDApTdGV2ZSBUZXN0MSAwHgYJKoZIhvcNAQkBFhFzdGV2ZUBvcGVuc3NsLm9y
ZzCCASIwDQYJKoZIhvcNAQEBBQADggEPADCCAQoCggEBANKBiSBRSA9z9BEyJNUf
HP1c9bbmxfBSgdzSr2ZKfJMxYVyv0W0GcANgfHIMiN1JzZ4CbNJa11MP89q+aWS1
DwwA47NQR6Ozm7oTUNZYWkurOeARygonZwN4ImZtkh4bXEmu5mvRjjudBtPGrE1T
QxCr6JbBh4KXmY8g05kSNzGE4Yr/KQNfIpA+f5vgIMGt3K5MORoxlhcCjLLZtA0g
Ept9hlT9M/3BKmJG+GCWz24BbyLfE0fnl+wFciOjYvj676yccvA3yy83z5CoJ1GG
xtd4CI9+JaIVcKL7HLYVXqCXi4FMCSiKJzuUvHHbW3E3misW4G+1yfVLTyC6Zc+v
ra0CAwEAAaOCAQ4wggEKMAsGA1UdDwQEAwIFoDAJBgNVHRMEAjAAMBEGCWCGSAGG
+EIBAQQEAwIGQDAzBglghkgBhvhCAQ0EJhYkT3BlblNTTCBHZW5lcmF0ZWQgU2Vy
dmVyIENlcnRpZmljYXRlMB0GA1UdDgQWBBTlJW0+rw3dP0zyRRk51RTbfpzArTB0
BgNVHSMEbTBrgBT0p8DMkUavZPOR8if4yLJviocyc6FIpEYwRDELMAkGA1UEBhMC
REUxDzANBgNVBAgMBkhlc3NlbjEUMBIGA1UECgwLcHJpdmFjeWlkZWExDjAMBgNV
BAMMBUNBMDAxggkA+8jrrIPNEgcwEwYDVR0lBAwwCgYIKwYBBQUHAwEwDQYJKoZI
hvcNAQEFBQADggEBAG089gt14lb2iClzR794v16sNLHqtjsCUqvb+PofYLl2eT4j
GypEPzdABqtDv+jxxNCZ5crT/63Xgm8/IUKXSuA22szV/PTg+aL4iMvvwXd3I5M+
NCl6HpV5JEiU8MVdPzJ/ydbMRtAsggblZFhI0Ayf74tBLLpykwndh9Ct/Qd8c/oX
e02s0J48uuhJdru2EL8OtTYfQ4qYme8qPr9QCOocCAwWjzXHg3zkreVT8A8WLhPq
fDKHK6KM/wcX0XBeLr8OjBNFqT39YnfpC4ALe4OeI3pyLz0J1OBOaMBvvs8/p1el
uVCTe08MR9j09qBqWyW8O9Ys3KLzrcCEso7hAQg=
-----END CERTIFICATE-----
