Certificate:
    Data:
        Version: 3 (0x2)
        Serial Number: 268435659 (0x100000cb)
    Signature Algorithm: sha1WithRSAEncryption
        Issuer: C=DE, ST=Hessen, O=privacyidea, CN=CA001
        Validity
            Not Before: Dec 21 12:44:53 2016 GMT
            Not After : Dec 21 12:44:53 2017 GMT
        Subject: C=DE, ST=Hessen, O=privacyidea, CN=usercert
        Subject Public Key Info:
            Public Key Algorithm: rsaEncryption
                Public-Key: (2048 bit)
                Modulus:
                    00:dc:2f:d1:5f:29:97:d4:7c:c3:53:c8:30:bd:4b:
                    67:70:2c:24:6b:b8:5e:eb:21:7a:48:12:56:7c:81:
                    5c:48:75:b6:68:eb:f6:f2:98:4e:50:51:d1:7f:6c:
                    73:f3:0a:a7:ae:be:48:5e:e5:d6:e1:d9:2a:7c:32:
                    6e:4e:fd:08:f6:5a:54:49:23:73:c3:b9:07:18:d1:
                    ef:b3:ac:f8:8a:dc:94:96:a4:90:3a:8e:74:df:e6:
                    0d:37:1b:bd:5b:b7:25:1a:56:39:da:6f:91:aa:5e:
                    1c:74:f3:f9:7c:14:01:83:12:65:76:c7:bb:fe:36:
                    5b:95:e9:72:65:83:ed:3e:98:30:71:fa:87:dd:a3:
                    36:5a:30:03:2e:26:e0:61:d1:bf:02:3f:b6:06:1f:
                    4a:89:28:1c:5c:a2:ff:4e:be:94:e6:8c:e0:da:82:
                    f1:9d:29:32:48:30:73:b4:04:f6:42:1e:be:f7:e2:
                    32:32:27:3c:9d:89:2f:70:3e:85:9a:6f:5c:c5:09:
                    c0:8c:32:2f:72:22:c9:d2:95:1f:b6:ac:72:60:72:
                    b7:82:4d:6b:ce:5b:e3:00:d0:d2:2f:58:c6:e0:10:
                    e5:51:ca:4d:3b:2e:e6:7e:ab:84:d6:56:f1:93:35:
                    a0:93:64:26:81:75:2f:91:b5:16:06:38:0b:db:cc:
                    2d:07
                Exponent: 65537 (0x10001)
        X509v3 extensions:
            X509v3 Key Usage: 
                Digital Signature, Key Encipherment
            X509v3 Basic Constraints: 
                CA:FALSE
            Netscape Cert Type: 
                SSL Server
            Netscape Comment: 
                OpenSSL Generated Server Certificate
            X509v3 Subject Key Identifier: 
                FC:14:D1:F0:4B:8D:00:90:F2:F5:B8:71:9E:4E:97:C3:92:54:AD:0B
            X509v3 Authority Key Identifier: 
                keyid:F4:A7:C0:CC:91:46:AF:64:F3:91:F2:27:F8:C8:B2:6F:8A:87:32:73
                DirName:/C=DE/ST=Hessen/O=privacyidea/CN=CA001
                serial:FB:C8:EB:AC:83:CD:12:07

            X509v3 Extended Key Usage: 
                TLS Web Server Authentication
    Signature Algorithm: sha1WithRSAEncryption
         bd:59:4a:34:67:ef:ca:09:32:00:9b:de:a0:48:78:fe:94:4a:
         a7:77:93:a9:aa:71:95:0b:ba:e8:00:76:6f:47:a3:03:29:58:
         ca:a2:6b:24:fe:eb:5d:1c:cb:f2:2a:af:12:a5:4e:c1:0b:ba:
         e2:46:8e:3e:d1:a5:c7:6f:6a:2f:72:da:f3:f2:3e:34:dd:18:
         f3:3b:1f:69:6b:bd:83:5c:89:04:20:2d:be:44:bb:b6:b4:fb:
         26:11:ab:7a:12:a8:86:86:75:40:5d:93:72:72:d7:ab:1e:d9:
         47:b9:a1:4c:10:de:fd:63:21:9d:ea:23:cc:6e:87:33:4c:a0:
         30:f9:e2:c6:ce:f6:84:ff:50:50:65:9d:aa:18:68:05:da:77:
         33:d8:ca:27:4f:dc:7a:3e:2c:13:3e:b9:80:f8:d4:a9:a4:57:
         1b:64:3e:cb:d1:84:ca:84:85:74:b9:2a:d2:17:8e:68:80:7c:
         97:b8:4b:a2:19:17:4f:29:6e:8f:7b:d3:66:0e:9f:9e:1b:0d:
         d0:25:02:3b:a3:4a:32:65:52:cc:aa:ed:10:14:fd:df:83:12:
         81:52:15:66:22:ac:a7:65:e4:72:b9:49:2a:3c:b3:c4:f1:25:
         2b:d5:55:ec:e4:35:e5:7a:3b:c1:e0:9e:af:79:d6:da:05:ad:
         4d:0c:dd:62
-----BEGIN CERTIFICATE-----
MIIEGTCCAwGgAwIBAgIEEAAAyzANBgkqhkiG9w0BAQUFADBEMQswCQYDVQQGEwJE
RTEPMA0GA1UECAwGSGVzc2VuMRQwEgYDVQQKDAtwcml2YWN5aWRlYTEOMAwGA1UE
AwwFQ0EwMDEwHhcNMTYxMjIxMTI0NDUzWhcNMTcxMjIxMTI0NDUzWjBHMQswCQYD
VQQGEwJERTEPMA0GA1UECAwGSGVzc2VuMRQwEgYDVQQKDAtwcml2YWN5aWRlYTER
MA8GA1UEAwwIdXNlcmNlcnQwggEiMA0GCSqGSIb3DQEBAQUAA4IBDwAwggEKAoIB
AQDcL9FfKZfUfMNTyDC9S2dwLCRruF7rIXpIElZ8gVxIdbZo6/bymE5QUdF/bHPz
Cqeuvkhe5dbh2Sp8Mm5O/Qj2WlRJI3PDuQcY0e+zrPiK3JSWpJA6jnTf5g03G71b
tyUaVjnab5GqXhx08/l8FAGDEmV2x7v+NluV6XJlg+0+mDBx+ofdozZaMAMuJuBh
0b8CP7YGH0qJKBxcov9OvpTmjODagvGdKTJIMHO0BPZCHr734jIyJzydiS9wPoWa
b1zFCcCMMi9yIsnSlR+2rHJgcreCTWvOW+MA0NIvWMbgEOVRyk07LuZ+q4TWVvGT
NaCTZCaBdS+RtRYGOAvbzC0HAgMBAAGjggEOMIIBCjALBgNVHQ8EBAMCBaAwCQYD
VR0TBAIwADARBglghkgBhvhCAQEEBAMCBkAwMwYJYIZIAYb4QgENBCYWJE9wZW5T
U0wgR2VuZXJhdGVkIFNlcnZlciBDZXJ0aWZpY2F0ZTAdBgNVHQ4EFgQU/BTR8EuN
AJDy9bhxnk6Xw5JUrQswdAYDVR0jBG0wa4AU9KfAzJFGr2TzkfIn+Miyb4qHMnOh
SKRGMEQxCzAJBgNVBAYTAkRFMQ8wDQYDVQQIDAZIZXNzZW4xFDASBgNVBAoMC3By
aXZhY3lpZGVhMQ4wDAYDVQQDDAVDQTAwMYIJAPvI66yDzRIHMBMGA1UdJQQMMAoG
CCsGAQUFBwMBMA0GCSqGSIb3DQEBBQUAA4IBAQC9WUo0Z+/KCTIAm96gSHj+lEqn
d5OpqnGVC7roAHZvR6MDKVjKomsk/utdHMvyKq8SpU7BC7riRo4+0aXHb2ovctrz
8j403RjzOx9pa72DXIkEIC2+RLu2tPsmEat6EqiGhnVAXZNycterHtlHuaFMEN79
YyGd6iPMboczTKAw+eLGzvaE/1BQZZ2qGGgF2ncz2MonT9x6PiwTPrmA+NSppFcb
ZD7L0YTKhIV0uSrSF45ogHyXuEuiGRdPKW6Pe9NmDp+eGw3QJQI7o0oyZVLMqu0Q
FP3fgxKBUhVmIqynZeRyuUkqPLPE8SUr1VXs5DXlejvB4J6vedbaBa1NDN1i
-----END CERTIFICATE-----
