Certificate:
    Data:
        Version: 3 (0x2)
        Serial Number: 268435693 (0x100000ed)
    Signature Algorithm: sha1WithRSAEncryption
        Issuer: C=DE, ST=Hessen, O=privacyidea, CN=CA001
        Validity
            Not Before: Sep 27 19:59:04 2016 GMT
            Not After : Sep 27 19:59:04 2017 GMT
        Subject: C=DE, ST=Hessen, O=privacyidea, CN=requester.localdomain
        Subject Public Key Info:
            Public Key Algorithm: rsaEncryption
                Public-Key: (2048 bit)
                Modulus:
                    00:cd:be:14:4f:fa:ce:01:3f:42:22:1b:1d:9c:af:
                    dd:92:d2:7f:db:6c:b7:3e:39:43:43:6b:13:03:f1:
                    05:f4:07:74:bc:76:69:28:0b:af:19:8e:d7:fc:e3:
                    cd:c6:58:f2:ca:7f:08:6d:53:fc:07:02:44:24:c6:
                    b4:34:4c:8c:04:fe:33:0e:40:e2:20:ba:02:73:5a:
                    f7:f5:4f:63:6e:cc:c6:b6:df:54:1d:37:39:7d:51:
                    36:26:5f:bd:dc:3f:a8:8b:6b:a2:ae:b6:9d:d6:21:
                    e7:df:41:b8:7a:28:2a:68:48:ca:a8:2d:ed:e1:e9:
                    46:5e:5a:72:6d:b4:84:38:87:91:fd:94:11:0b:28:
                    84:c6:c2:2f:2a:fb:01:f9:36:7a:09:75:d1:33:88:
                    3c:73:41:5b:c8:bf:94:89:70:a1:f0:c0:b9:2e:50:
                    53:1e:b1:17:64:69:f4:2d:81:e0:a9:0d:0e:32:e9:
                    ba:55:8a:85:f1:1b:6f:49:79:b4:7f:88:c3:0d:3e:
                    54:88:9b:3d:1f:38:8c:04:f3:ee:6a:63:2b:f5:c6:
                    db:b4:83:aa:c4:78:41:3a:7d:4b:e1:c8:3e:71:ca:
                    1b:61:59:ea:c6:c4:ca:32:5e:c9:e9:bf:12:29:e6:
                    c6:c3:63:fe:a0:55:da:7a:f1:60:98:4d:26:ed:fa:
                    70:2d
                Exponent: 65537 (0x10001)
        X509v3 extensions:
            X509v3 Key Usage: 
                Digital Signature, Key Encipherment
            X509v3 Basic Constraints: 
                CA:FALSE
            Netscape Cert Type: 
                SSL Server
            Netscape Comment: 
                OpenSSL Generated Server Certificate
            X509v3 Subject Key Identifier: 
                53:3F:ED:5D:09:07:B3:65:7B:AB:45:C9:24:5B:09:77:80:0A:96:ED
            X509v3 Authority Key Identifier: 
                keyid:F4:A7:C0:CC:91:46:AF:64:F3:91:F2:27:F8:C8:B2:6F:8A:87:32:73
                DirName:/C=DE/ST=Hessen/O=privacyidea/CN=CA001
                serial:FB:C8:EB:AC:83:CD:12:07

            X509v3 Extended Key Usage: 
                TLS Web Server Authentication
    Signature Algorithm: sha1WithRSAEncryption
         b1:0b:75:f1:d1:13:86:17:70:5d:0f:44:d7:c9:41:df:5c:eb:
         ac:b0:60:e7:c3:51:d3:3b:8e:bf:0a:6f:ee:07:25:77:80:f6:
         2d:e5:a7:53:37:22:db:b9:df:a0:3c:cc:c7:fa:a1:8b:5b:90:
         7f:7c:e1:9d:59:16:a3:84:64:5b:97:b7:3b:00:e8:e5:81:e6:
         1b:7c:79:5d:36:70:69:33:2d:0f:63:95:bc:4a:50:13:63:b0:
         e4:79:94:29:2f:ac:69:23:12:2f:1a:d1:73:e3:ce:c6:15:1f:
         e1:9a:0b:22:2a:f9:5d:dd:83:9a:4d:ef:a0:0e:dd:f4:f8:14:
         c5:c4:70:0b:eb:11:cb:13:65:99:ad:a0:cd:f4:85:9b:6f:d8:
         73:08:4a:7e:32:ea:59:31:6d:73:c3:f5:8b:fc:87:c8:57:26:
         4a:92:c9:76:e9:f6:fe:8c:d1:e2:cc:fa:25:58:d6:a3:39:f2:
         69:34:f7:58:c2:bb:67:3a:df:71:8a:df:39:c5:e1:4c:eb:48:
         65:04:a5:ab:ac:78:71:25:53:8f:d8:49:cb:ca:ed:94:db:5a:
         65:bd:dd:7f:39:de:2e:f0:7f:2d:0d:88:b4:86:8e:b9:5f:39:
         f7:90:07:c3:ac:3f:60:af:b3:2f:3d:a6:c2:92:49:af:3e:ac:
         e7:b2:45:81
-----BEGIN CERTIFICATE-----
MIIEJjCCAw6gAwIBAgIEEAAA7TANBgkqhkiG9w0BAQUFADBEMQswCQYDVQQGEwJE
RTEPMA0GA1UECAwGSGVzc2VuMRQwEgYDVQQKDAtwcml2YWN5aWRlYTEOMAwGA1UE
AwwFQ0EwMDEwHhcNMTYwOTI3MTk1OTA0WhcNMTcwOTI3MTk1OTA0WjBUMQswCQYD
VQQGEwJERTEPMA0GA1UECAwGSGVzc2VuMRQwEgYDVQQKDAtwcml2YWN5aWRlYTEe
MBwGA1UEAwwVcmVxdWVzdGVyLmxvY2FsZG9tYWluMIIBIjANBgkqhkiG9w0BAQEF
AAOCAQ8AMIIBCgKCAQEAzb4UT/rOAT9CIhsdnK/dktJ/22y3PjlDQ2sTA/EF9Ad0
vHZpKAuvGY7X/OPNxljyyn8IbVP8BwJEJMa0NEyMBP4zDkDiILoCc1r39U9jbszG
tt9UHTc5fVE2Jl+93D+oi2uirrad1iHn30G4eigqaEjKqC3t4elGXlpybbSEOIeR
/ZQRCyiExsIvKvsB+TZ6CXXRM4g8c0FbyL+UiXCh8MC5LlBTHrEXZGn0LYHgqQ0O
Mum6VYqF8RtvSXm0f4jDDT5UiJs9HziMBPPuamMr9cbbtIOqxHhBOn1L4cg+ccob
YVnqxsTKMl7J6b8SKebGw2P+oFXaevFgmE0m7fpwLQIDAQABo4IBDjCCAQowCwYD
VR0PBAQDAgWgMAkGA1UdEwQCMAAwEQYJYIZIAYb4QgEBBAQDAgZAMDMGCWCGSAGG
+EIBDQQmFiRPcGVuU1NMIEdlbmVyYXRlZCBTZXJ2ZXIgQ2VydGlmaWNhdGUwHQYD
VR0OBBYEFFM/7V0JB7Nle6tFySRbCXeACpbtMHQGA1UdIwRtMGuAFPSnwMyRRq9k
85HyJ/jIsm+KhzJzoUikRjBEMQswCQYDVQQGEwJERTEPMA0GA1UECAwGSGVzc2Vu
MRQwEgYDVQQKDAtwcml2YWN5aWRlYTEOMAwGA1UEAwwFQ0EwMDGCCQD7yOusg80S
BzATBgNVHSUEDDAKBggrBgEFBQcDATANBgkqhkiG9w0BAQUFAAOCAQEAsQt18dET
hhdwXQ9E18lB31zrrLBg58NR0zuOvwpv7gcld4D2LeWnUzci27nfoDzMx/qhi1uQ
f3zhnVkWo4RkW5e3OwDo5YHmG3x5XTZwaTMtD2OVvEpQE2Ow5HmUKS+saSMSLxrR
c+POxhUf4ZoLIir5Xd2Dmk3voA7d9PgUxcRwC+sRyxNlma2gzfSFm2/YcwhKfjLq
WTFtc8P1i/yHyFcmSpLJdun2/ozR4sz6JVjWoznyaTT3WMK7ZzrfcYrfOcXhTOtI
ZQSlq6x4cSVTj9hJy8rtlNtaZb3dfzneLvB/LQ2ItIaOuV8595AHw6w/YK+zLz2m
wpJJrz6s57JFgQ==
-----END CERTIFICATE-----
