Certificate:
    Data:
        Version: 3 (0x2)
        Serial Number: 268435690 (0x100000ea)
    Signature Algorithm: sha1WithRSAEncryption
        Issuer: C=DE, ST=Hessen, O=privacyidea, CN=CA001
        Validity
            Not Before: Sep 27 19:53:26 2016 GMT
            Not After : Sep 27 19:53:26 2017 GMT
        Subject: C=DE, ST=Hessen, O=privacyidea, CN=requester.localdomain
        Subject Public Key Info:
            Public Key Algorithm: rsaEncryption
                Public-Key: (2048 bit)
                Modulus:
                    00:cd:be:14:4f:fa:ce:01:3f:42:22:1b:1d:9c:af:
                    dd:92:d2:7f:db:6c:b7:3e:39:43:43:6b:13:03:f1:
                    05:f4:07:74:bc:76:69:28:0b:af:19:8e:d7:fc:e3:
                    cd:c6:58:f2:ca:7f:08:6d:53:fc:07:02:44:24:c6:
                    b4:34:4c:8c:04:fe:33:0e:40:e2:20:ba:02:73:5a:
                    f7:f5:4f:63:6e:cc:c6:b6:df:54:1d:37:39:7d:51:
                    36:26:5f:bd:dc:3f:a8:8b:6b:a2:ae:b6:9d:d6:21:
                    e7:df:41:b8:7a:28:2a:68:48:ca:a8:2d:ed:e1:e9:
                    46:5e:5a:72:6d:b4:84:38:87:91:fd:94:11:0b:28:
                    84:c6:c2:2f:2a:fb:01:f9:36:7a:09:75:d1:33:88:
                    3c:73:41:5b:c8:bf:94:89:70:a1:f0:c0:b9:2e:50:
                    53:1e:b1:17:64:69:f4:2d:81:e0:a9:0d:0e:32:e9:
                    ba:55:8a:85:f1:1b:6f:49:79:b4:7f:88:c3:0d:3e:
                    54:88:9b:3d:1f:38:8c:04:f3:ee:6a:63:2b:f5:c6:
                    db:b4:83:aa:c4:78:41:3a:7d:4b:e1:c8:3e:71:ca:
                    1b:61:59:ea:c6:c4:ca:32:5e:c9:e9:bf:12:29:e6:
                    c6:c3:63:fe:a0:55:da:7a:f1:60:98:4d:26:ed:fa:
                    70:2d
                Exponent: 65537 (0x10001)
        X509v3 extensions:
            X509v3 Key Usage: 
                Digital Signature, Key Encipherment
            X509v3 Basic Constraints: 
                CA:FALSE
            Netscape Cert Type: 
                SSL Server
            Netscape Comment: 
                OpenSSL Generated Server Certificate
            X509v3 Subject Key Identifier: 
                53:3F:ED:5D:09:07:B3:65:7B:AB:45:C9:24:5B:09:77:80:0A:96:ED
            X509v3 Authority Key Identifier: 
                keyid:F4:A7:C0:CC:91:46:AF:64:F3:91:F2:27:F8:C8:B2:6F:8A:87:32:73
                DirName:/C=DE/ST=Hessen/O=privacyidea/CN=CA001
                serial:FB:C8:EB:AC:83:CD:12:07

            X509v3 Extended Key Usage: 
                TLS Web Server Authentication
    Signature Algorithm: sha1WithRSAEncryption
         60:b5:52:97:f9:42:ec:96:5e:28:26:41:0a:db:d4:e8:4b:57:
         3f:3b:b7:a8:71:05:58:69:6c:fd:fc:33:c6:4f:df:c3:ed:5c:
         fc:ae:05:2a:4e:d2:db:2f:c0:8e:8e:00:42:a1:50:60:2f:08:
         ca:80:3a:74:02:70:43:33:79:39:56:69:98:fc:13:2c:44:4c:
         24:92:0b:96:b2:58:4b:a2:5a:e1:39:df:1c:a9:b7:4c:97:ab:
         fd:78:06:c7:0f:23:0f:96:c6:05:c2:d8:f4:3b:27:4c:f5:21:
         00:79:45:2c:f0:89:b1:ab:bc:49:71:20:21:c6:b3:9a:83:aa:
         91:6f:6c:b6:cc:20:5c:b5:dc:37:ae:20:14:81:16:70:72:3e:
         4e:aa:bb:6d:22:f3:74:74:47:29:fb:bc:45:fc:17:1d:62:fe:
         1e:18:5c:9e:b0:8e:a9:9a:a7:da:d9:ab:c3:fc:cb:1c:de:5d:
         bc:31:33:4d:95:ec:cc:1a:e1:f5:08:c0:6f:f5:18:78:30:6b:
         f3:a3:12:a8:aa:e9:df:05:7b:9b:4d:ef:f0:01:ac:4b:aa:b3:
         84:20:03:ba:18:c7:c8:41:f8:87:f2:41:b4:80:04:bb:c0:bc:
         74:bd:fa:3f:44:56:cf:eb:b4:8f:cf:1d:71:91:5d:b7:83:14:
         0d:5d:c2:6a
-----BEGIN CERTIFICATE-----
MIIEJjCCAw6gAwIBAgIEEAAA6jANBgkqhkiG9w0BAQUFADBEMQswCQYDVQQGEwJE
RTEPMA0GA1UECAwGSGVzc2VuMRQwEgYDVQQKDAtwcml2YWN5aWRlYTEOMAwGA1UE
AwwFQ0EwMDEwHhcNMTYwOTI3MTk1MzI2WhcNMTcwOTI3MTk1MzI2WjBUMQswCQYD
VQQGEwJERTEPMA0GA1UECAwGSGVzc2VuMRQwEgYDVQQKDAtwcml2YWN5aWRlYTEe
MBwGA1UEAwwVcmVxdWVzdGVyLmxvY2FsZG9tYWluMIIBIjANBgkqhkiG9w0BAQEF
AAOCAQ8AMIIBCgKCAQEAzb4UT/rOAT9CIhsdnK/dktJ/22y3PjlDQ2sTA/EF9Ad0
vHZpKAuvGY7X/OPNxljyyn8IbVP8BwJEJMa0NEyMBP4zDkDiILoCc1r39U9jbszG
tt9UHTc5fVE2Jl+93D+oi2uirrad1iHn30G4eigqaEjKqC3t4elGXlpybbSEOIeR
/ZQRCyiExsIvKvsB+TZ6CXXRM4g8c0FbyL+UiXCh8MC5LlBTHrEXZGn0LYHgqQ0O
Mum6VYqF8RtvSXm0f4jDDT5UiJs9HziMBPPuamMr9cbbtIOqxHhBOn1L4cg+ccob
YVnqxsTKMl7J6b8SKebGw2P+oFXaevFgmE0m7fpwLQIDAQABo4IBDjCCAQowCwYD
VR0PBAQDAgWgMAkGA1UdEwQCMAAwEQYJYIZIAYb4QgEBBAQDAgZAMDMGCWCGSAGG
+EIBDQQmFiRPcGVuU1NMIEdlbmVyYXRlZCBTZXJ2ZXIgQ2VydGlmaWNhdGUwHQYD
VR0OBBYEFFM/7V0JB7Nle6tFySRbCXeACpbtMHQGA1UdIwRtMGuAFPSnwMyRRq9k
85HyJ/jIsm+KhzJzoUikRjBEMQswCQYDVQQGEwJERTEPMA0GA1UECAwGSGVzc2Vu
MRQwEgYDVQQKDAtwcml2YWN5aWRlYTEOMAwGA1UEAwwFQ0EwMDGCCQD7yOusg80S
BzATBgNVHSUEDDAKBggrBgEFBQcDATANBgkqhkiG9w0BAQUFAAOCAQEAYLVSl/lC
7JZeKCZBCtvU6EtXPzu3qHEFWGls/fwzxk/fw+1c/K4FKk7S2y/Ajo4AQqFQYC8I
yoA6dAJwQzN5OVZpmPwTLERMJJILlrJYS6Ja4TnfHKm3TJer/XgGxw8jD5bGBcLY
9DsnTPUhAHlFLPCJsau8SXEgIcazmoOqkW9stswgXLXcN64gFIEWcHI+Tqq7bSLz
dHRHKfu8RfwXHWL+HhhcnrCOqZqn2tmrw/zLHN5dvDEzTZXszBrh9QjAb/UYeDBr
86MSqKrp3wV7m03v8AGsS6qzhCADuhjHyEH4h/JBtIAEu8C8dL36P0RWz+u0j88d
cZFdt4MUDV3Cag==
-----END CERTIFICATE-----
