Certificate:
    Data:
        Version: 3 (0x2)
        Serial Number: 268435686 (0x100000e6)
    Signature Algorithm: sha1WithRSAEncryption
        Issuer: C=DE, ST=Hessen, O=privacyidea, CN=CA001
        Validity
            Not Before: Sep 30 16:59:15 2016 GMT
            Not After : Sep 30 16:59:15 2017 GMT
        Subject: CN=selfservice,CN=user,O=realm1/emailAddress=meine
        Subject Public Key Info:
            Public Key Algorithm: rsaEncryption
                Public-Key: (2048 bit)
                Modulus:
                    00:cf:3c:d4:33:0e:12:c4:e6:da:cd:b6:56:a1:1c:
                    26:bb:26:1c:8a:4a:73:a8:58:8a:b6:1e:b3:8b:99:
                    d2:1d:07:c2:92:89:79:c0:69:d8:c8:df:28:61:98:
                    1e:b3:fe:ae:2b:bd:78:a9:f7:6e:47:dc:a3:a0:16:
                    8c:85:02:c1:4e:92:fd:72:6e:f0:c8:03:29:9b:b8:
                    00:6e:c0:83:95:c8:34:20:36:9c:b3:e5:e4:e6:76:
                    73:a3:1a:ad:40:96:e0:53:54:00:ec:76:79:9a:c6:
                    0d:7e:b6:bd:29:ec:83:f3:cb:89:a4:cb:6c:00:ba:
                    0c:c5:78:0f:ff:69:b8:94:f4:04:70:43:3f:d8:9e:
                    d7:a7:fb:5d:ce:75:8e:da:e7:c4:07:b1:9d:de:6f:
                    88:4b:b6:4d:9a:cf:f9:bc:fa:9f:cd:32:6d:f6:3a:
                    0b:0d:23:42:78:ec:97:42:bf:0e:4d:60:56:e1:d3:
                    02:f2:19:cb:84:57:90:e5:70:a1:a2:83:35:86:e2:
                    da:86:9f:f9:8a:c4:79:b3:52:28:da:cb:bb:34:ca:
                    d3:da:91:4a:cf:8d:76:a2:b2:6b:9b:f9:96:fd:09:
                    2a:da:11:23:4d:f0:cb:d6:b2:b1:0e:12:6c:9a:19:
                    65:98:87:ca:e4:ee:24:ce:44:ac:90:8f:9d:1b:c5:
                    2a:9d
                Exponent: 65537 (0x10001)
        X509v3 extensions:
            X509v3 Key Usage: 
                Digital Signature, Key Encipherment
            X509v3 Basic Constraints: 
                CA:FALSE
            Netscape Cert Type: 
                SSL Server
            Netscape Comment: 
                OpenSSL Generated Server Certificate
            X509v3 Subject Key Identifier: 
                4D:07:90:AD:FF:1D:0D:E7:1A:DD:D6:2E:FA:BA:34:CB:AA:1F:24:C6
            X509v3 Authority Key Identifier: 
                keyid:F4:A7:C0:CC:91:46:AF:64:F3:91:F2:27:F8:C8:B2:6F:8A:87:32:73
                DirName:/C=DE/ST=Hessen/O=privacyidea/CN=CA001
                serial:FB:C8:EB:AC:83:CD:12:07

            X509v3 Extended Key Usage: 
                TLS Web Server Authentication
    Signature Algorithm: sha1WithRSAEncryption
         76:9c:45:21:e7:57:4b:4a:a8:00:c6:d1:91:81:d4:da:45:4d:
         6b:7e:aa:a0:f4:79:a8:a4:5f:a1:ef:ac:38:45:72:2f:c8:50:
         fc:83:1b:3d:80:8f:91:e4:59:12:97:4f:57:61:2a:26:43:94:
         29:61:5f:00:02:61:95:3e:20:da:60:8c:91:60:76:85:9e:e8:
         a7:bb:82:8d:4a:8b:e2:6f:39:cf:40:41:07:50:9e:71:2f:76:
         69:5a:71:30:74:7c:01:b4:0f:a9:a2:5e:c9:ce:7f:17:40:f2:
         bb:2c:a8:a9:4e:5c:4e:8d:67:18:88:c3:b5:4f:fa:57:fc:0c:
         d7:8e:99:8a:85:8f:fa:ad:31:e2:65:54:40:31:70:0b:01:9d:
         f5:24:b4:c1:10:1e:e6:8b:42:69:ac:5a:75:ad:18:16:17:e7:
         1c:ce:50:12:db:bf:49:e0:06:5c:0b:71:c6:90:e7:ea:47:08:
         b3:d2:60:b2:21:96:42:8d:b5:59:3b:d0:86:00:7c:bf:9d:34:
         20:44:d2:cb:00:30:8f:ee:94:08:22:50:f3:03:9a:5b:1d:93:
         76:91:94:69:31:49:a8:86:c1:50:17:fc:3f:7c:e2:38:f3:ea:
         03:26:33:a7:7f:eb:0f:a2:01:74:66:3a:0c:5b:b9:7d:5c:b2:
         f8:48:03:27
-----BEGIN CERTIFICATE-----
MIIEDzCCAvegAwIBAgIEEAAA5jANBgkqhkiG9w0BAQUFADBEMQswCQYDVQQGEwJE
RTEPMA0GA1UECAwGSGVzc2VuMRQwEgYDVQQKDAtwcml2YWN5aWRlYTEOMAwGA1UE
AwwFQ0EwMDEwHhcNMTYwOTMwMTY1OTE1WhcNMTcwOTMwMTY1OTE1WjA9MSUwIwYD
VQQDDBxzZWxmc2VydmljZSxDTj11c2VyLE89cmVhbG0xMRQwEgYJKoZIhvcNAQkB
FgVtZWluZTCCASIwDQYJKoZIhvcNAQEBBQADggEPADCCAQoCggEBAM881DMOEsTm
2s22VqEcJrsmHIpKc6hYirYes4uZ0h0HwpKJecBp2MjfKGGYHrP+riu9eKn3bkfc
o6AWjIUCwU6S/XJu8MgDKZu4AG7Ag5XINCA2nLPl5OZ2c6MarUCW4FNUAOx2eZrG
DX62vSnsg/PLiaTLbAC6DMV4D/9puJT0BHBDP9ie16f7Xc51jtrnxAexnd5viEu2
TZrP+bz6n80ybfY6Cw0jQnjsl0K/Dk1gVuHTAvIZy4RXkOVwoaKDNYbi2oaf+YrE
ebNSKNrLuzTK09qRSs+NdqKya5v5lv0JKtoRI03wy9aysQ4SbJoZZZiHyuTuJM5E
rJCPnRvFKp0CAwEAAaOCAQ4wggEKMAsGA1UdDwQEAwIFoDAJBgNVHRMEAjAAMBEG
CWCGSAGG+EIBAQQEAwIGQDAzBglghkgBhvhCAQ0EJhYkT3BlblNTTCBHZW5lcmF0
ZWQgU2VydmVyIENlcnRpZmljYXRlMB0GA1UdDgQWBBRNB5Ct/x0N5xrd1i76ujTL
qh8kxjB0BgNVHSMEbTBrgBT0p8DMkUavZPOR8if4yLJviocyc6FIpEYwRDELMAkG
A1UEBhMCREUxDzANBgNVBAgMBkhlc3NlbjEUMBIGA1UECgwLcHJpdmFjeWlkZWEx
DjAMBgNVBAMMBUNBMDAxggkA+8jrrIPNEgcwEwYDVR0lBAwwCgYIKwYBBQUHAwEw
DQYJKoZIhvcNAQEFBQADggEBAHacRSHnV0tKqADG0ZGB1NpFTWt+qqD0eaikX6Hv
rDhFci/IUPyDGz2Aj5HkWRKXT1dhKiZDlClhXwACYZU+INpgjJFgdoWe6Ke7go1K
i+JvOc9AQQdQnnEvdmlacTB0fAG0D6miXsnOfxdA8rssqKlOXE6NZxiIw7VP+lf8
DNeOmYqFj/qtMeJlVEAxcAsBnfUktMEQHuaLQmmsWnWtGBYX5xzOUBLbv0ngBlwL
ccaQ5+pHCLPSYLIhlkKNtVk70IYAfL+dNCBE0ssAMI/ulAgiUPMDmlsdk3aRlGkx
SaiGwVAX/D984jjz6gMmM6d/6w+iAXRmOgxbuX1csvhIAyc=
-----END CERTIFICATE-----
