Certificate:
    Data:
        Version: 3 (0x2)
        Serial Number: 268435657 (0x100000c9)
    Signature Algorithm: sha1WithRSAEncryption
        Issuer: C=DE, ST=Hessen, O=privacyidea, CN=CA001
        Validity
            Not Before: Dec 21 12:43:01 2016 GMT
            Not After : Dec 21 12:43:01 2017 GMT
        Subject: C=DE, ST=Hessen, O=privacyidea, CN=requester.localdomain
        Subject Public Key Info:
            Public Key Algorithm: rsaEncryption
                Public-Key: (2048 bit)
                Modulus:
                    00:cd:be:14:4f:fa:ce:01:3f:42:22:1b:1d:9c:af:
                    dd:92:d2:7f:db:6c:b7:3e:39:43:43:6b:13:03:f1:
                    05:f4:07:74:bc:76:69:28:0b:af:19:8e:d7:fc:e3:
                    cd:c6:58:f2:ca:7f:08:6d:53:fc:07:02:44:24:c6:
                    b4:34:4c:8c:04:fe:33:0e:40:e2:20:ba:02:73:5a:
                    f7:f5:4f:63:6e:cc:c6:b6:df:54:1d:37:39:7d:51:
                    36:26:5f:bd:dc:3f:a8:8b:6b:a2:ae:b6:9d:d6:21:
                    e7:df:41:b8:7a:28:2a:68:48:ca:a8:2d:ed:e1:e9:
                    46:5e:5a:72:6d:b4:84:38:87:91:fd:94:11:0b:28:
                    84:c6:c2:2f:2a:fb:01:f9:36:7a:09:75:d1:33:88:
                    3c:73:41:5b:c8:bf:94:89:70:a1:f0:c0:b9:2e:50:
                    53:1e:b1:17:64:69:f4:2d:81:e0:a9:0d:0e:32:e9:
                    ba:55:8a:85:f1:1b:6f:49:79:b4:7f:88:c3:0d:3e:
                    54:88:9b:3d:1f:38:8c:04:f3:ee:6a:63:2b:f5:c6:
                    db:b4:83:aa:c4:78:41:3a:7d:4b:e1:c8:3e:71:ca:
                    1b:61:59:ea:c6:c4:ca:32:5e:c9:e9:bf:12:29:e6:
                    c6:c3:63:fe:a0:55:da:7a:f1:60:98:4d:26:ed:fa:
                    70:2d
                Exponent: 65537 (0x10001)
        X509v3 extensions:
            X509v3 Key Usage: 
                Digital Signature, Key Encipherment
            X509v3 Basic Constraints: 
                CA:FALSE
            Netscape Cert Type: 
                SSL Server
            Netscape Comment: 
                OpenSSL Generated Server Certificate
            X509v3 Subject Key Identifier: 
                53:3F:ED:5D:09:07:B3:65:7B:AB:45:C9:24:5B:09:77:80:0A:96:ED
            X509v3 Authority Key Identifier: 
                keyid:F4:A7:C0:CC:91:46:AF:64:F3:91:F2:27:F8:C8:B2:6F:8A:87:32:73
                DirName:/C=DE/ST=Hessen/O=privacyidea/CN=CA001
                serial:FB:C8:EB:AC:83:CD:12:07

            X509v3 Extended Key Usage: 
                TLS Web Server Authentication
    Signature Algorithm: sha1WithRSAEncryption
         0d:53:6b:bd:50:4f:03:86:37:3e:a6:f9:93:e8:b3:c9:0c:c9:
         80:28:6c:50:1d:fc:b2:64:0a:d7:6d:37:52:6d:84:b0:43:1a:
         49:d5:27:f7:6b:1d:4c:1f:eb:a5:5f:7c:48:58:bf:d3:d8:aa:
         a4:5e:c0:73:94:55:b6:c3:db:67:2a:91:22:2f:32:f4:91:06:
         b7:82:50:0a:59:18:9f:8d:26:fe:15:7a:59:b8:60:d2:06:28:
         aa:b1:4b:c0:36:3a:b0:8e:44:42:c6:fa:ca:1d:a3:24:8b:a3:
         0b:91:54:33:5f:ff:86:ed:7f:ae:1f:7a:c1:03:fe:8f:6b:90:
         9a:a1:25:88:b8:3c:9f:f9:42:3b:71:2a:bb:73:08:6f:fd:fb:
         47:eb:2f:9e:2f:36:89:21:0a:5c:3a:32:df:a7:97:36:bf:73:
         d5:1c:bc:75:85:1d:31:3e:62:11:83:97:86:e3:3d:40:f0:f2:
         98:7f:96:d8:ca:99:d6:e5:43:36:3c:48:28:f8:71:5e:8c:59:
         d2:d6:07:fc:78:36:f9:d9:38:d2:0a:24:c6:df:5d:79:f9:8a:
         06:2b:ac:bd:0b:31:09:23:6d:5e:d7:80:42:9d:22:00:fd:2f:
         fc:04:93:f5:bd:a6:96:5d:0a:30:48:97:52:20:cc:83:0f:9c:
         3e:75:01:34
-----BEGIN CERTIFICATE-----
MIIEJjCCAw6gAwIBAgIEEAAAyTANBgkqhkiG9w0BAQUFADBEMQswCQYDVQQGEwJE
RTEPMA0GA1UECAwGSGVzc2VuMRQwEgYDVQQKDAtwcml2YWN5aWRlYTEOMAwGA1UE
AwwFQ0EwMDEwHhcNMTYxMjIxMTI0MzAxWhcNMTcxMjIxMTI0MzAxWjBUMQswCQYD
VQQGEwJERTEPMA0GA1UECAwGSGVzc2VuMRQwEgYDVQQKDAtwcml2YWN5aWRlYTEe
MBwGA1UEAwwVcmVxdWVzdGVyLmxvY2FsZG9tYWluMIIBIjANBgkqhkiG9w0BAQEF
AAOCAQ8AMIIBCgKCAQEAzb4UT/rOAT9CIhsdnK/dktJ/22y3PjlDQ2sTA/EF9Ad0
vHZpKAuvGY7X/OPNxljyyn8IbVP8BwJEJMa0NEyMBP4zDkDiILoCc1r39U9jbszG
tt9UHTc5fVE2Jl+93D+oi2uirrad1iHn30G4eigqaEjKqC3t4elGXlpybbSEOIeR
/ZQRCyiExsIvKvsB+TZ6CXXRM4g8c0FbyL+UiXCh8MC5LlBTHrEXZGn0LYHgqQ0O
Mum6VYqF8RtvSXm0f4jDDT5UiJs9HziMBPPuamMr9cbbtIOqxHhBOn1L4cg+ccob
YVnqxsTKMl7J6b8SKebGw2P+oFXaevFgmE0m7fpwLQIDAQABo4IBDjCCAQowCwYD
VR0PBAQDAgWgMAkGA1UdEwQCMAAwEQYJYIZIAYb4QgEBBAQDAgZAMDMGCWCGSAGG
+EIBDQQmFiRPcGVuU1NMIEdlbmVyYXRlZCBTZXJ2ZXIgQ2VydGlmaWNhdGUwHQYD
VR0OBBYEFFM/7V0JB7Nle6tFySRbCXeACpbtMHQGA1UdIwRtMGuAFPSnwMyRRq9k
85HyJ/jIsm+KhzJzoUikRjBEMQswCQYDVQQGEwJERTEPMA0GA1UECAwGSGVzc2Vu
MRQwEgYDVQQKDAtwcml2YWN5aWRlYTEOMAwGA1UEAwwFQ0EwMDGCCQD7yOusg80S
BzATBgNVHSUEDDAKBggrBgEFBQcDATANBgkqhkiG9w0BAQUFAAOCAQEADVNrvVBP
A4Y3Pqb5k+izyQzJgChsUB38smQK1203Um2EsEMaSdUn92sdTB/rpV98SFi/09iq
pF7Ac5RVtsPbZyqRIi8y9JEGt4JQClkYn40m/hV6Wbhg0gYoqrFLwDY6sI5EQsb6
yh2jJIujC5FUM1//hu1/rh96wQP+j2uQmqEliLg8n/lCO3Equ3MIb/37R+svni82
iSEKXDoy36eXNr9z1Ry8dYUdMT5iEYOXhuM9QPDymH+W2MqZ1uVDNjxIKPhxXoxZ
0tYH/Hg2+dk40gokxt9defmKBiusvQsxCSNtXteAQp0iAP0v/AST9b2mll0KMEiX
UiDMgw+cPnUBNA==
-----END CERTIFICATE-----
