Certificate:
    Data:
        Version: 3 (0x2)
        Serial Number: 268435671 (0x100000d7)
    Signature Algorithm: sha1WithRSAEncryption
        Issuer: C=DE, ST=Hessen, O=privacyidea, CN=CA001
        Validity
            Not Before: Dec  5 13:34:39 2016 GMT
            Not After : Dec  5 13:34:39 2017 GMT
        Subject: CN=Steve Test/emailAddress=steve@openssl.org
        Subject Public Key Info:
            Public Key Algorithm: rsaEncryption
                Public-Key: (2048 bit)
                Modulus:
                    00:d2:81:89:20:51:48:0f:73:f4:11:32:24:d5:1f:
                    1c:fd:5c:f5:b6:e6:c5:f0:52:81:dc:d2:af:66:4a:
                    7c:93:31:61:5c:af:d1:6d:06:70:03:60:7c:72:0c:
                    88:dd:49:cd:9e:02:6c:d2:5a:d7:53:0f:f3:da:be:
                    69:64:b5:0f:0c:00:e3:b3:50:47:a3:b3:9b:ba:13:
                    50:d6:58:5a:4b:ab:39:e0:11:ca:0a:27:67:03:78:
                    22:66:6d:92:1e:1b:5c:49:ae:e6:6b:d1:8e:3b:9d:
                    06:d3:c6:ac:4d:53:43:10:ab:e8:96:c1:87:82:97:
                    99:8f:20:d3:99:12:37:31:84:e1:8a:ff:29:03:5f:
                    22:90:3e:7f:9b:e0:20:c1:ad:dc:ae:4c:39:1a:31:
                    96:17:02:8c:b2:d9:b4:0d:20:12:9b:7d:86:54:fd:
                    33:fd:c1:2a:62:46:f8:60:96:cf:6e:01:6f:22:df:
                    13:47:e7:97:ec:05:72:23:a3:62:f8:fa:ef:ac:9c:
                    72:f0:37:cb:2f:37:cf:90:a8:27:51:86:c6:d7:78:
                    08:8f:7e:25:a2:15:70:a2:fb:1c:b6:15:5e:a0:97:
                    8b:81:4c:09:28:8a:27:3b:94:bc:71:db:5b:71:37:
                    9a:2b:16:e0:6f:b5:c9:f5:4b:4f:20:ba:65:cf:af:
                    ad:ad
                Exponent: 65537 (0x10001)
        X509v3 extensions:
            X509v3 Key Usage: 
                Digital Signature, Key Encipherment
            X509v3 Basic Constraints: 
                CA:FALSE
            Netscape Cert Type: 
                SSL Server
            Netscape Comment: 
                OpenSSL Generated Server Certificate
            X509v3 Subject Key Identifier: 
                E5:25:6D:3E:AF:0D:DD:3F:4C:F2:45:19:39:D5:14:DB:7E:9C:C0:AD
            X509v3 Authority Key Identifier: 
                keyid:F4:A7:C0:CC:91:46:AF:64:F3:91:F2:27:F8:C8:B2:6F:8A:87:32:73
                DirName:/C=DE/ST=Hessen/O=privacyidea/CN=CA001
                serial:FB:C8:EB:AC:83:CD:12:07

            X509v3 Extended Key Usage: 
                TLS Web Server Authentication
    Signature Algorithm: sha1WithRSAEncryption
         37:88:c2:40:cf:11:55:e4:55:62:7a:15:5a:37:de:ca:96:67:
         cf:5d:5a:e3:f8:29:69:e7:89:46:2c:a8:fb:c7:b3:c6:1b:78:
         00:28:d8:4f:ae:3f:27:4b:43:44:5f:d2:a7:9d:af:93:13:99:
         0a:f6:4a:96:83:7a:3e:5c:99:17:10:e9:0a:d5:d8:06:32:09:
         06:6f:fe:d7:dd:5d:a5:90:bc:64:13:90:a0:3a:2c:ec:e7:66:
         53:6a:e7:19:fa:0b:ad:02:8d:5f:fa:4f:9b:17:6c:4f:4f:e1:
         46:c7:b7:8f:26:67:d5:b6:9d:0f:a3:18:d2:58:2e:a5:8d:97:
         5f:14:14:ea:0d:39:f1:5b:66:44:97:a8:f7:24:4d:44:53:90:
         0b:8c:49:33:80:59:0a:d6:f1:8b:af:ca:a7:a3:12:32:a0:d8:
         22:44:01:20:29:bc:e3:a1:35:73:a0:1f:29:ab:c0:c8:81:cb:
         c1:ee:b9:21:df:20:47:2f:92:fb:71:13:b3:52:13:53:d2:bd:
         f0:31:04:b7:b7:9f:25:65:9b:71:86:77:ab:27:fd:a6:30:ee:
         9d:22:a8:5d:13:52:c9:17:a9:85:a5:cd:06:09:c0:e5:d2:54:
         0b:2b:3f:db:15:5a:e7:ca:48:1b:9f:09:67:bf:91:a3:ed:53:
         95:9b:61:5b
-----BEGIN CERTIFICATE-----
MIIECTCCAvGgAwIBAgIEEAAA1zANBgkqhkiG9w0BAQUFADBEMQswCQYDVQQGEwJE
RTEPMA0GA1UECAwGSGVzc2VuMRQwEgYDVQQKDAtwcml2YWN5aWRlYTEOMAwGA1UE
AwwFQ0EwMDEwHhcNMTYxMjA1MTMzNDM5WhcNMTcxMjA1MTMzNDM5WjA3MRMwEQYD
VQQDDApTdGV2ZSBUZXN0MSAwHgYJKoZIhvcNAQkBFhFzdGV2ZUBvcGVuc3NsLm9y
ZzCCASIwDQYJKoZIhvcNAQEBBQADggEPADCCAQoCggEBANKBiSBRSA9z9BEyJNUf
HP1c9bbmxfBSgdzSr2ZKfJMxYVyv0W0GcANgfHIMiN1JzZ4CbNJa11MP89q+aWS1
DwwA47NQR6Ozm7oTUNZYWkurOeARygonZwN4ImZtkh4bXEmu5mvRjjudBtPGrE1T
QxCr6JbBh4KXmY8g05kSNzGE4Yr/KQNfIpA+f5vgIMGt3K5MORoxlhcCjLLZtA0g
Ept9hlT9M/3BKmJG+GCWz24BbyLfE0fnl+wFciOjYvj676yccvA3yy83z5CoJ1GG
xtd4CI9+JaIVcKL7HLYVXqCXi4FMCSiKJzuUvHHbW3E3misW4G+1yfVLTyC6Zc+v
ra0CAwEAAaOCAQ4wggEKMAsGA1UdDwQEAwIFoDAJBgNVHRMEAjAAMBEGCWCGSAGG
+EIBAQQEAwIGQDAzBglghkgBhvhCAQ0EJhYkT3BlblNTTCBHZW5lcmF0ZWQgU2Vy
dmVyIENlcnRpZmljYXRlMB0GA1UdDgQWBBTlJW0+rw3dP0zyRRk51RTbfpzArTB0
BgNVHSMEbTBrgBT0p8DMkUavZPOR8if4yLJviocyc6FIpEYwRDELMAkGA1UEBhMC
REUxDzANBgNVBAgMBkhlc3NlbjEUMBIGA1UECgwLcHJpdmFjeWlkZWExDjAMBgNV
BAMMBUNBMDAxggkA+8jrrIPNEgcwEwYDVR0lBAwwCgYIKwYBBQUHAwEwDQYJKoZI
hvcNAQEFBQADggEBADeIwkDPEVXkVWJ6FVo33sqWZ89dWuP4KWnniUYsqPvHs8Yb
eAAo2E+uPydLQ0Rf0qedr5MTmQr2SpaDej5cmRcQ6QrV2AYyCQZv/tfdXaWQvGQT
kKA6LOznZlNq5xn6C60CjV/6T5sXbE9P4UbHt48mZ9W2nQ+jGNJYLqWNl18UFOoN
OfFbZkSXqPckTURTkAuMSTOAWQrW8YuvyqejEjKg2CJEASApvOOhNXOgHymrwMiB
y8HuuSHfIEcvkvtxE7NSE1PSvfAxBLe3nyVlm3GGd6sn/aYw7p0iqF0TUskXqYWl
zQYJwOXSVAsrP9sVWufKSBufCWe/kaPtU5WbYVs=
-----END CERTIFICATE-----
