Certificate:
    Data:
        Version: 3 (0x2)
        Serial Number: 268435711 (0x100000ff)
    Signature Algorithm: sha1WithRSAEncryption
        Issuer: C=DE, ST=Hessen, O=privacyidea, CN=CA001
        Validity
            Not Before: Apr 26 13:31:54 2016 GMT
            Not After : Apr 26 13:31:54 2017 GMT
        Subject: C=DE, ST=Hessen, O=privacyidea, CN=requester.localdomain
        Subject Public Key Info:
            Public Key Algorithm: rsaEncryption
                Public-Key: (2048 bit)
                Modulus:
                    00:cd:be:14:4f:fa:ce:01:3f:42:22:1b:1d:9c:af:
                    dd:92:d2:7f:db:6c:b7:3e:39:43:43:6b:13:03:f1:
                    05:f4:07:74:bc:76:69:28:0b:af:19:8e:d7:fc:e3:
                    cd:c6:58:f2:ca:7f:08:6d:53:fc:07:02:44:24:c6:
                    b4:34:4c:8c:04:fe:33:0e:40:e2:20:ba:02:73:5a:
                    f7:f5:4f:63:6e:cc:c6:b6:df:54:1d:37:39:7d:51:
                    36:26:5f:bd:dc:3f:a8:8b:6b:a2:ae:b6:9d:d6:21:
                    e7:df:41:b8:7a:28:2a:68:48:ca:a8:2d:ed:e1:e9:
                    46:5e:5a:72:6d:b4:84:38:87:91:fd:94:11:0b:28:
                    84:c6:c2:2f:2a:fb:01:f9:36:7a:09:75:d1:33:88:
                    3c:73:41:5b:c8:bf:94:89:70:a1:f0:c0:b9:2e:50:
                    53:1e:b1:17:64:69:f4:2d:81:e0:a9:0d:0e:32:e9:
                    ba:55:8a:85:f1:1b:6f:49:79:b4:7f:88:c3:0d:3e:
                    54:88:9b:3d:1f:38:8c:04:f3:ee:6a:63:2b:f5:c6:
                    db:b4:83:aa:c4:78:41:3a:7d:4b:e1:c8:3e:71:ca:
                    1b:61:59:ea:c6:c4:ca:32:5e:c9:e9:bf:12:29:e6:
                    c6:c3:63:fe:a0:55:da:7a:f1:60:98:4d:26:ed:fa:
                    70:2d
                Exponent: 65537 (0x10001)
        X509v3 extensions:
            X509v3 Key Usage: 
                Digital Signature, Key Encipherment
            X509v3 Basic Constraints: 
                CA:FALSE
            Netscape Cert Type: 
                SSL Server
            Netscape Comment: 
                OpenSSL Generated Server Certificate
            X509v3 Subject Key Identifier: 
                53:3F:ED:5D:09:07:B3:65:7B:AB:45:C9:24:5B:09:77:80:0A:96:ED
            X509v3 Authority Key Identifier: 
                keyid:F4:A7:C0:CC:91:46:AF:64:F3:91:F2:27:F8:C8:B2:6F:8A:87:32:73
                DirName:/C=DE/ST=Hessen/O=privacyidea/CN=CA001
                serial:FB:C8:EB:AC:83:CD:12:07

            X509v3 Extended Key Usage: 
                TLS Web Server Authentication
    Signature Algorithm: sha1WithRSAEncryption
         71:22:b0:74:ea:3e:af:bc:07:66:75:c2:6d:02:65:1e:42:eb:
         0d:6f:64:0b:9b:64:3a:ec:4a:9b:e3:0f:b0:e6:4a:2a:ac:9f:
         5a:c5:17:9d:0b:ed:c0:24:72:2f:eb:99:12:c6:e9:f2:20:8e:
         e0:35:cb:d3:28:2b:ce:91:be:69:79:fb:c9:46:2d:8e:88:9d:
         ec:26:ff:24:2e:41:64:c2:71:73:4d:69:a1:f3:c5:29:ee:1a:
         00:40:f6:52:dc:18:ac:5c:c7:73:48:c6:74:26:2d:c2:1d:c5:
         93:01:62:f4:b6:5c:5e:97:bb:22:7f:ab:3a:d1:0e:14:62:62:
         4d:1e:0d:e9:46:d3:86:4c:27:af:9b:c4:16:be:33:f5:4a:32:
         73:77:2c:2d:c9:cd:73:fc:6a:c4:dc:51:36:cc:6e:14:06:a0:
         57:be:68:87:b7:e3:54:05:cf:0e:b2:e0:f3:e6:4a:bb:f1:45:
         ed:79:27:40:9e:ad:fb:4d:8d:8b:36:db:79:b7:69:cf:9b:d7:
         da:55:69:54:8e:19:8f:42:d6:ae:28:3b:b3:ef:38:06:ae:72:
         17:67:99:7c:d1:18:7a:4d:67:bc:7e:f2:92:18:1f:5c:8d:20:
         25:1a:22:d6:31:5c:56:35:8f:c8:ed:7d:88:d1:1b:c9:e2:39:
         a2:05:eb:05
-----BEGIN CERTIFICATE-----
MIIEJjCCAw6gAwIBAgIEEAAA/zANBgkqhkiG9w0BAQUFADBEMQswCQYDVQQGEwJE
RTEPMA0GA1UECAwGSGVzc2VuMRQwEgYDVQQKDAtwcml2YWN5aWRlYTEOMAwGA1UE
AwwFQ0EwMDEwHhcNMTYwNDI2MTMzMTU0WhcNMTcwNDI2MTMzMTU0WjBUMQswCQYD
VQQGEwJERTEPMA0GA1UECAwGSGVzc2VuMRQwEgYDVQQKDAtwcml2YWN5aWRlYTEe
MBwGA1UEAwwVcmVxdWVzdGVyLmxvY2FsZG9tYWluMIIBIjANBgkqhkiG9w0BAQEF
AAOCAQ8AMIIBCgKCAQEAzb4UT/rOAT9CIhsdnK/dktJ/22y3PjlDQ2sTA/EF9Ad0
vHZpKAuvGY7X/OPNxljyyn8IbVP8BwJEJMa0NEyMBP4zDkDiILoCc1r39U9jbszG
tt9UHTc5fVE2Jl+93D+oi2uirrad1iHn30G4eigqaEjKqC3t4elGXlpybbSEOIeR
/ZQRCyiExsIvKvsB+TZ6CXXRM4g8c0FbyL+UiXCh8MC5LlBTHrEXZGn0LYHgqQ0O
Mum6VYqF8RtvSXm0f4jDDT5UiJs9HziMBPPuamMr9cbbtIOqxHhBOn1L4cg+ccob
YVnqxsTKMl7J6b8SKebGw2P+oFXaevFgmE0m7fpwLQIDAQABo4IBDjCCAQowCwYD
VR0PBAQDAgWgMAkGA1UdEwQCMAAwEQYJYIZIAYb4QgEBBAQDAgZAMDMGCWCGSAGG
+EIBDQQmFiRPcGVuU1NMIEdlbmVyYXRlZCBTZXJ2ZXIgQ2VydGlmaWNhdGUwHQYD
VR0OBBYEFFM/7V0JB7Nle6tFySRbCXeACpbtMHQGA1UdIwRtMGuAFPSnwMyRRq9k
85HyJ/jIsm+KhzJzoUikRjBEMQswCQYDVQQGEwJERTEPMA0GA1UECAwGSGVzc2Vu
MRQwEgYDVQQKDAtwcml2YWN5aWRlYTEOMAwGA1UEAwwFQ0EwMDGCCQD7yOusg80S
BzATBgNVHSUEDDAKBggrBgEFBQcDATANBgkqhkiG9w0BAQUFAAOCAQEAcSKwdOo+
r7wHZnXCbQJlHkLrDW9kC5tkOuxKm+MPsOZKKqyfWsUXnQvtwCRyL+uZEsbp8iCO
4DXL0ygrzpG+aXn7yUYtjoid7Cb/JC5BZMJxc01pofPFKe4aAED2UtwYrFzHc0jG
dCYtwh3FkwFi9LZcXpe7In+rOtEOFGJiTR4N6UbThkwnr5vEFr4z9Uoyc3csLcnN
c/xqxNxRNsxuFAagV75oh7fjVAXPDrLg8+ZKu/FF7XknQJ6t+02Nizbbebdpz5vX
2lVpVI4Zj0LWrig7s+84Bq5yF2eZfNEYek1nvH7ykhgfXI0gJRoi1jFcVjWPyO19
iNEbyeI5ogXrBQ==
-----END CERTIFICATE-----
