Certificate:
    Data:
        Version: 3 (0x2)
        Serial Number: 268435692 (0x100000ec)
    Signature Algorithm: sha1WithRSAEncryption
        Issuer: C=DE, ST=Hessen, O=privacyidea, CN=CA001
        Validity
            Not Before: Sep 27 19:57:41 2016 GMT
            Not After : Sep 27 19:57:41 2017 GMT
        Subject: C=DE, ST=Hessen, O=privacyidea, CN=requester.localdomain
        Subject Public Key Info:
            Public Key Algorithm: rsaEncryption
                Public-Key: (2048 bit)
                Modulus:
                    00:cd:be:14:4f:fa:ce:01:3f:42:22:1b:1d:9c:af:
                    dd:92:d2:7f:db:6c:b7:3e:39:43:43:6b:13:03:f1:
                    05:f4:07:74:bc:76:69:28:0b:af:19:8e:d7:fc:e3:
                    cd:c6:58:f2:ca:7f:08:6d:53:fc:07:02:44:24:c6:
                    b4:34:4c:8c:04:fe:33:0e:40:e2:20:ba:02:73:5a:
                    f7:f5:4f:63:6e:cc:c6:b6:df:54:1d:37:39:7d:51:
                    36:26:5f:bd:dc:3f:a8:8b:6b:a2:ae:b6:9d:d6:21:
                    e7:df:41:b8:7a:28:2a:68:48:ca:a8:2d:ed:e1:e9:
                    46:5e:5a:72:6d:b4:84:38:87:91:fd:94:11:0b:28:
                    84:c6:c2:2f:2a:fb:01:f9:36:7a:09:75:d1:33:88:
                    3c:73:41:5b:c8:bf:94:89:70:a1:f0:c0:b9:2e:50:
                    53:1e:b1:17:64:69:f4:2d:81:e0:a9:0d:0e:32:e9:
                    ba:55:8a:85:f1:1b:6f:49:79:b4:7f:88:c3:0d:3e:
                    54:88:9b:3d:1f:38:8c:04:f3:ee:6a:63:2b:f5:c6:
                    db:b4:83:aa:c4:78:41:3a:7d:4b:e1:c8:3e:71:ca:
                    1b:61:59:ea:c6:c4:ca:32:5e:c9:e9:bf:12:29:e6:
                    c6:c3:63:fe:a0:55:da:7a:f1:60:98:4d:26:ed:fa:
                    70:2d
                Exponent: 65537 (0x10001)
        X509v3 extensions:
            X509v3 Key Usage: 
                Digital Signature, Key Encipherment
            X509v3 Basic Constraints: 
                CA:FALSE
            Netscape Cert Type: 
                SSL Server
            Netscape Comment: 
                OpenSSL Generated Server Certificate
            X509v3 Subject Key Identifier: 
                53:3F:ED:5D:09:07:B3:65:7B:AB:45:C9:24:5B:09:77:80:0A:96:ED
            X509v3 Authority Key Identifier: 
                keyid:F4:A7:C0:CC:91:46:AF:64:F3:91:F2:27:F8:C8:B2:6F:8A:87:32:73
                DirName:/C=DE/ST=Hessen/O=privacyidea/CN=CA001
                serial:FB:C8:EB:AC:83:CD:12:07

            X509v3 Extended Key Usage: 
                TLS Web Server Authentication
    Signature Algorithm: sha1WithRSAEncryption
         6b:4d:64:0f:d1:70:ec:55:a2:05:2f:d4:a3:e4:e2:c3:b5:d6:
         47:fb:69:12:e8:34:ee:53:58:84:54:42:4f:76:6a:a6:90:58:
         33:de:1d:c5:29:64:ec:34:00:60:27:6a:f4:12:f0:9a:83:b7:
         83:77:e3:02:7b:90:72:df:21:9d:88:69:00:74:04:b2:89:d3:
         9c:4d:36:97:45:e2:50:41:bc:08:95:54:7f:48:a9:45:65:ea:
         a0:c3:f7:7c:00:7d:ed:9d:3b:83:6b:c4:75:8b:54:b0:1e:80:
         22:22:35:b6:95:2f:df:de:97:06:bd:66:0f:c3:61:09:12:99:
         21:04:91:ee:9c:ab:7c:76:de:7d:c4:50:97:9f:ba:8d:21:d8:
         b9:43:e7:51:2c:14:92:eb:5b:3f:bd:d3:e6:64:8b:91:37:24:
         20:bd:05:83:dc:4d:ec:06:35:63:52:d2:7d:88:e2:c2:32:24:
         c6:4f:6e:c9:23:bb:72:e3:68:77:85:90:18:5f:55:0c:8e:c6:
         68:7f:b8:82:4f:db:9e:90:22:1b:b3:a7:8e:14:e4:f0:a4:d3:
         76:c3:cc:db:40:2b:1a:ab:46:60:50:43:c2:ee:4d:75:c4:d1:
         38:3e:20:ec:38:1d:9b:1c:27:31:6c:f9:67:5a:e1:7a:17:bf:
         87:5d:23:7f
-----BEGIN CERTIFICATE-----
MIIEJjCCAw6gAwIBAgIEEAAA7DANBgkqhkiG9w0BAQUFADBEMQswCQYDVQQGEwJE
RTEPMA0GA1UECAwGSGVzc2VuMRQwEgYDVQQKDAtwcml2YWN5aWRlYTEOMAwGA1UE
AwwFQ0EwMDEwHhcNMTYwOTI3MTk1NzQxWhcNMTcwOTI3MTk1NzQxWjBUMQswCQYD
VQQGEwJERTEPMA0GA1UECAwGSGVzc2VuMRQwEgYDVQQKDAtwcml2YWN5aWRlYTEe
MBwGA1UEAwwVcmVxdWVzdGVyLmxvY2FsZG9tYWluMIIBIjANBgkqhkiG9w0BAQEF
AAOCAQ8AMIIBCgKCAQEAzb4UT/rOAT9CIhsdnK/dktJ/22y3PjlDQ2sTA/EF9Ad0
vHZpKAuvGY7X/OPNxljyyn8IbVP8BwJEJMa0NEyMBP4zDkDiILoCc1r39U9jbszG
tt9UHTc5fVE2Jl+93D+oi2uirrad1iHn30G4eigqaEjKqC3t4elGXlpybbSEOIeR
/ZQRCyiExsIvKvsB+TZ6CXXRM4g8c0FbyL+UiXCh8MC5LlBTHrEXZGn0LYHgqQ0O
Mum6VYqF8RtvSXm0f4jDDT5UiJs9HziMBPPuamMr9cbbtIOqxHhBOn1L4cg+ccob
YVnqxsTKMl7J6b8SKebGw2P+oFXaevFgmE0m7fpwLQIDAQABo4IBDjCCAQowCwYD
VR0PBAQDAgWgMAkGA1UdEwQCMAAwEQYJYIZIAYb4QgEBBAQDAgZAMDMGCWCGSAGG
+EIBDQQmFiRPcGVuU1NMIEdlbmVyYXRlZCBTZXJ2ZXIgQ2VydGlmaWNhdGUwHQYD
VR0OBBYEFFM/7V0JB7Nle6tFySRbCXeACpbtMHQGA1UdIwRtMGuAFPSnwMyRRq9k
85HyJ/jIsm+KhzJzoUikRjBEMQswCQYDVQQGEwJERTEPMA0GA1UECAwGSGVzc2Vu
MRQwEgYDVQQKDAtwcml2YWN5aWRlYTEOMAwGA1UEAwwFQ0EwMDGCCQD7yOusg80S
BzATBgNVHSUEDDAKBggrBgEFBQcDATANBgkqhkiG9w0BAQUFAAOCAQEAa01kD9Fw
7FWiBS/Uo+Tiw7XWR/tpEug07lNYhFRCT3ZqppBYM94dxSlk7DQAYCdq9BLwmoO3
g3fjAnuQct8hnYhpAHQEsonTnE02l0XiUEG8CJVUf0ipRWXqoMP3fAB97Z07g2vE
dYtUsB6AIiI1tpUv396XBr1mD8NhCRKZIQSR7pyrfHbefcRQl5+6jSHYuUPnUSwU
kutbP73T5mSLkTckIL0Fg9xN7AY1Y1LSfYjiwjIkxk9uySO7cuNod4WQGF9VDI7G
aH+4gk/bnpAiG7OnjhTk8KTTdsPM20ArGqtGYFBDwu5NdcTROD4g7DgdmxwnMWz5
Z1rhehe/h10jfw==
-----END CERTIFICATE-----
