Certificate:
    Data:
        Version: 3 (0x2)
        Serial Number: 268435699 (0x100000f3)
    Signature Algorithm: sha1WithRSAEncryption
        Issuer: C=DE, ST=Hessen, O=privacyidea, CN=CA001
        Validity
            Not Before: Sep 27 20:15:40 2016 GMT
            Not After : Sep 27 20:15:40 2017 GMT
        Subject: C=DE, ST=Hessen, O=privacyidea, CN=requester.localdomain
        Subject Public Key Info:
            Public Key Algorithm: rsaEncryption
                Public-Key: (2048 bit)
                Modulus:
                    00:cd:be:14:4f:fa:ce:01:3f:42:22:1b:1d:9c:af:
                    dd:92:d2:7f:db:6c:b7:3e:39:43:43:6b:13:03:f1:
                    05:f4:07:74:bc:76:69:28:0b:af:19:8e:d7:fc:e3:
                    cd:c6:58:f2:ca:7f:08:6d:53:fc:07:02:44:24:c6:
                    b4:34:4c:8c:04:fe:33:0e:40:e2:20:ba:02:73:5a:
                    f7:f5:4f:63:6e:cc:c6:b6:df:54:1d:37:39:7d:51:
                    36:26:5f:bd:dc:3f:a8:8b:6b:a2:ae:b6:9d:d6:21:
                    e7:df:41:b8:7a:28:2a:68:48:ca:a8:2d:ed:e1:e9:
                    46:5e:5a:72:6d:b4:84:38:87:91:fd:94:11:0b:28:
                    84:c6:c2:2f:2a:fb:01:f9:36:7a:09:75:d1:33:88:
                    3c:73:41:5b:c8:bf:94:89:70:a1:f0:c0:b9:2e:50:
                    53:1e:b1:17:64:69:f4:2d:81:e0:a9:0d:0e:32:e9:
                    ba:55:8a:85:f1:1b:6f:49:79:b4:7f:88:c3:0d:3e:
                    54:88:9b:3d:1f:38:8c:04:f3:ee:6a:63:2b:f5:c6:
                    db:b4:83:aa:c4:78:41:3a:7d:4b:e1:c8:3e:71:ca:
                    1b:61:59:ea:c6:c4:ca:32:5e:c9:e9:bf:12:29:e6:
                    c6:c3:63:fe:a0:55:da:7a:f1:60:98:4d:26:ed:fa:
                    70:2d
                Exponent: 65537 (0x10001)
        X509v3 extensions:
            X509v3 Key Usage: 
                Digital Signature, Key Encipherment
            X509v3 Basic Constraints: 
                CA:FALSE
            Netscape Cert Type: 
                SSL Server
            Netscape Comment: 
                OpenSSL Generated Server Certificate
            X509v3 Subject Key Identifier: 
                53:3F:ED:5D:09:07:B3:65:7B:AB:45:C9:24:5B:09:77:80:0A:96:ED
            X509v3 Authority Key Identifier: 
                keyid:F4:A7:C0:CC:91:46:AF:64:F3:91:F2:27:F8:C8:B2:6F:8A:87:32:73
                DirName:/C=DE/ST=Hessen/O=privacyidea/CN=CA001
                serial:FB:C8:EB:AC:83:CD:12:07

            X509v3 Extended Key Usage: 
                TLS Web Server Authentication
    Signature Algorithm: sha1WithRSAEncryption
         9b:25:b0:cd:32:1f:ed:31:b7:03:98:4f:a6:8f:5f:19:53:70:
         b2:b1:13:42:6f:c3:7e:39:d7:f0:32:cf:bc:e2:3c:80:d7:c3:
         b3:24:b1:ae:11:57:32:39:5e:fb:d7:72:4a:d0:4b:9b:2a:6d:
         9a:05:24:91:d9:32:f9:e7:fb:a2:34:00:8b:a1:24:ff:b6:4b:
         58:e7:4e:a5:f2:90:24:45:29:36:f4:ab:2d:6c:55:ce:21:80:
         1f:b3:c6:f4:7f:59:9a:d4:5c:e1:7d:9d:ca:3d:dd:22:88:ef:
         64:33:cf:ed:a9:9e:aa:25:d9:8b:e5:c0:6f:e8:9e:de:91:86:
         2a:fa:e8:8d:68:f8:1e:36:5c:00:2e:54:ed:f0:cb:55:c8:68:
         ed:c4:2f:b8:44:c0:2e:54:b5:e2:af:85:c5:8a:f6:b6:5f:ac:
         94:68:82:1d:37:86:fc:6f:ba:24:36:b2:5f:86:80:7f:b3:33:
         65:72:7e:53:a7:cc:c3:72:75:7f:3b:26:f4:1f:02:86:6e:6d:
         47:30:8a:e2:d2:c0:aa:2a:0d:61:9a:ea:ad:2f:cf:4a:45:1b:
         b3:0b:b4:34:63:28:d3:0a:19:3e:70:20:4e:c6:1a:7c:98:f7:
         15:73:09:d9:eb:cb:79:23:bc:a8:b0:b5:e4:a6:fd:e0:a8:25:
         12:27:65:d9
-----BEGIN CERTIFICATE-----
MIIEJjCCAw6gAwIBAgIEEAAA8zANBgkqhkiG9w0BAQUFADBEMQswCQYDVQQGEwJE
RTEPMA0GA1UECAwGSGVzc2VuMRQwEgYDVQQKDAtwcml2YWN5aWRlYTEOMAwGA1UE
AwwFQ0EwMDEwHhcNMTYwOTI3MjAxNTQwWhcNMTcwOTI3MjAxNTQwWjBUMQswCQYD
VQQGEwJERTEPMA0GA1UECAwGSGVzc2VuMRQwEgYDVQQKDAtwcml2YWN5aWRlYTEe
MBwGA1UEAwwVcmVxdWVzdGVyLmxvY2FsZG9tYWluMIIBIjANBgkqhkiG9w0BAQEF
AAOCAQ8AMIIBCgKCAQEAzb4UT/rOAT9CIhsdnK/dktJ/22y3PjlDQ2sTA/EF9Ad0
vHZpKAuvGY7X/OPNxljyyn8IbVP8BwJEJMa0NEyMBP4zDkDiILoCc1r39U9jbszG
tt9UHTc5fVE2Jl+93D+oi2uirrad1iHn30G4eigqaEjKqC3t4elGXlpybbSEOIeR
/ZQRCyiExsIvKvsB+TZ6CXXRM4g8c0FbyL+UiXCh8MC5LlBTHrEXZGn0LYHgqQ0O
Mum6VYqF8RtvSXm0f4jDDT5UiJs9HziMBPPuamMr9cbbtIOqxHhBOn1L4cg+ccob
YVnqxsTKMl7J6b8SKebGw2P+oFXaevFgmE0m7fpwLQIDAQABo4IBDjCCAQowCwYD
VR0PBAQDAgWgMAkGA1UdEwQCMAAwEQYJYIZIAYb4QgEBBAQDAgZAMDMGCWCGSAGG
+EIBDQQmFiRPcGVuU1NMIEdlbmVyYXRlZCBTZXJ2ZXIgQ2VydGlmaWNhdGUwHQYD
VR0OBBYEFFM/7V0JB7Nle6tFySRbCXeACpbtMHQGA1UdIwRtMGuAFPSnwMyRRq9k
85HyJ/jIsm+KhzJzoUikRjBEMQswCQYDVQQGEwJERTEPMA0GA1UECAwGSGVzc2Vu
MRQwEgYDVQQKDAtwcml2YWN5aWRlYTEOMAwGA1UEAwwFQ0EwMDGCCQD7yOusg80S
BzATBgNVHSUEDDAKBggrBgEFBQcDATANBgkqhkiG9w0BAQUFAAOCAQEAmyWwzTIf
7TG3A5hPpo9fGVNwsrETQm/DfjnX8DLPvOI8gNfDsySxrhFXMjle+9dyStBLmypt
mgUkkdky+ef7ojQAi6Ek/7ZLWOdOpfKQJEUpNvSrLWxVziGAH7PG9H9ZmtRc4X2d
yj3dIojvZDPP7ameqiXZi+XAb+ie3pGGKvrojWj4HjZcAC5U7fDLVcho7cQvuETA
LlS14q+FxYr2tl+slGiCHTeG/G+6JDayX4aAf7MzZXJ+U6fMw3J1fzsm9B8Chm5t
RzCK4tLAqioNYZrqrS/PSkUbswu0NGMo0woZPnAgTsYafJj3FXMJ2evLeSO8qLC1
5Kb94KglEidl2Q==
-----END CERTIFICATE-----
