Certificate:
    Data:
        Version: 3 (0x2)
        Serial Number: 268435666 (0x100000d2)
    Signature Algorithm: sha1WithRSAEncryption
        Issuer: C=DE, ST=Hessen, O=privacyidea, CN=CA001
        Validity
            Not Before: Dec 19 12:46:49 2016 GMT
            Not After : Dec 19 12:46:49 2017 GMT
        Subject: CN=Steve Test/emailAddress=steve@openssl.org
        Subject Public Key Info:
            Public Key Algorithm: rsaEncryption
                Public-Key: (2048 bit)
                Modulus:
                    00:d2:81:89:20:51:48:0f:73:f4:11:32:24:d5:1f:
                    1c:fd:5c:f5:b6:e6:c5:f0:52:81:dc:d2:af:66:4a:
                    7c:93:31:61:5c:af:d1:6d:06:70:03:60:7c:72:0c:
                    88:dd:49:cd:9e:02:6c:d2:5a:d7:53:0f:f3:da:be:
                    69:64:b5:0f:0c:00:e3:b3:50:47:a3:b3:9b:ba:13:
                    50:d6:58:5a:4b:ab:39:e0:11:ca:0a:27:67:03:78:
                    22:66:6d:92:1e:1b:5c:49:ae:e6:6b:d1:8e:3b:9d:
                    06:d3:c6:ac:4d:53:43:10:ab:e8:96:c1:87:82:97:
                    99:8f:20:d3:99:12:37:31:84:e1:8a:ff:29:03:5f:
                    22:90:3e:7f:9b:e0:20:c1:ad:dc:ae:4c:39:1a:31:
                    96:17:02:8c:b2:d9:b4:0d:20:12:9b:7d:86:54:fd:
                    33:fd:c1:2a:62:46:f8:60:96:cf:6e:01:6f:22:df:
                    13:47:e7:97:ec:05:72:23:a3:62:f8:fa:ef:ac:9c:
                    72:f0:37:cb:2f:37:cf:90:a8:27:51:86:c6:d7:78:
                    08:8f:7e:25:a2:15:70:a2:fb:1c:b6:15:5e:a0:97:
                    8b:81:4c:09:28:8a:27:3b:94:bc:71:db:5b:71:37:
                    9a:2b:16:e0:6f:b5:c9:f5:4b:4f:20:ba:65:cf:af:
                    ad:ad
                Exponent: 65537 (0x10001)
        X509v3 extensions:
            X509v3 Key Usage: 
                Digital Signature, Key Encipherment
            X509v3 Basic Constraints: 
                CA:FALSE
            Netscape Cert Type: 
                SSL Server
            Netscape Comment: 
                OpenSSL Generated Server Certificate
            X509v3 Subject Key Identifier: 
                E5:25:6D:3E:AF:0D:DD:3F:4C:F2:45:19:39:D5:14:DB:7E:9C:C0:AD
            X509v3 Authority Key Identifier: 
                keyid:F4:A7:C0:CC:91:46:AF:64:F3:91:F2:27:F8:C8:B2:6F:8A:87:32:73
                DirName:/C=DE/ST=Hessen/O=privacyidea/CN=CA001
                serial:FB:C8:EB:AC:83:CD:12:07

            X509v3 Extended Key Usage: 
                TLS Web Server Authentication
    Signature Algorithm: sha1WithRSAEncryption
         6e:7e:0b:94:94:4b:cc:a9:0f:2a:86:8c:d4:ae:1d:3e:e8:3a:
         7d:1c:77:5b:5d:d2:e0:2e:a4:6a:f8:31:b3:7b:c9:a2:ef:8d:
         e0:d5:86:ac:c7:15:85:b4:4a:6c:f8:79:7d:fa:57:6f:7e:d2:
         64:8a:12:3f:aa:de:99:ad:3d:b0:bd:83:3d:13:4d:4c:16:c0:
         49:f7:ed:29:a9:34:a9:0c:57:6e:3e:a5:09:db:c0:0c:bf:40:
         2c:9c:55:91:2a:90:8e:50:ac:09:b5:b2:bf:7d:ec:17:50:e4:
         f7:5e:fc:77:ee:5d:aa:aa:50:f5:c4:65:26:8c:e3:4b:1d:71:
         5d:2e:55:3a:46:b5:cf:bf:1f:d6:c1:02:06:ab:b2:13:89:e0:
         ff:60:fb:bc:79:cd:fe:da:a1:4d:43:85:34:2a:8f:85:fb:38:
         fc:97:ac:bf:99:b3:e3:68:b2:0d:6e:6d:50:55:c8:b7:5c:65:
         b9:64:bc:9d:01:24:b4:f5:bd:a3:8f:6c:8d:88:4c:2c:ae:5c:
         2a:45:9b:63:5b:ce:34:6a:50:0e:1e:5b:90:1d:a8:99:dc:28:
         bb:47:bf:8d:f0:11:26:60:ac:2e:64:c3:aa:70:b9:cd:ea:8f:
         83:70:f5:b2:2c:05:c1:c4:e2:df:9d:d0:72:24:76:7b:12:03:
         df:1c:5b:5d
-----BEGIN CERTIFICATE-----
MIIECTCCAvGgAwIBAgIEEAAA0jANBgkqhkiG9w0BAQUFADBEMQswCQYDVQQGEwJE
RTEPMA0GA1UECAwGSGVzc2VuMRQwEgYDVQQKDAtwcml2YWN5aWRlYTEOMAwGA1UE
AwwFQ0EwMDEwHhcNMTYxMjE5MTI0NjQ5WhcNMTcxMjE5MTI0NjQ5WjA3MRMwEQYD
VQQDDApTdGV2ZSBUZXN0MSAwHgYJKoZIhvcNAQkBFhFzdGV2ZUBvcGVuc3NsLm9y
ZzCCASIwDQYJKoZIhvcNAQEBBQADggEPADCCAQoCggEBANKBiSBRSA9z9BEyJNUf
HP1c9bbmxfBSgdzSr2ZKfJMxYVyv0W0GcANgfHIMiN1JzZ4CbNJa11MP89q+aWS1
DwwA47NQR6Ozm7oTUNZYWkurOeARygonZwN4ImZtkh4bXEmu5mvRjjudBtPGrE1T
QxCr6JbBh4KXmY8g05kSNzGE4Yr/KQNfIpA+f5vgIMGt3K5MORoxlhcCjLLZtA0g
Ept9hlT9M/3BKmJG+GCWz24BbyLfE0fnl+wFciOjYvj676yccvA3yy83z5CoJ1GG
xtd4CI9+JaIVcKL7HLYVXqCXi4FMCSiKJzuUvHHbW3E3misW4G+1yfVLTyC6Zc+v
ra0CAwEAAaOCAQ4wggEKMAsGA1UdDwQEAwIFoDAJBgNVHRMEAjAAMBEGCWCGSAGG
+EIBAQQEAwIGQDAzBglghkgBhvhCAQ0EJhYkT3BlblNTTCBHZW5lcmF0ZWQgU2Vy
dmVyIENlcnRpZmljYXRlMB0GA1UdDgQWBBTlJW0+rw3dP0zyRRk51RTbfpzArTB0
BgNVHSMEbTBrgBT0p8DMkUavZPOR8if4yLJviocyc6FIpEYwRDELMAkGA1UEBhMC
REUxDzANBgNVBAgMBkhlc3NlbjEUMBIGA1UECgwLcHJpdmFjeWlkZWExDjAMBgNV
BAMMBUNBMDAxggkA+8jrrIPNEgcwEwYDVR0lBAwwCgYIKwYBBQUHAwEwDQYJKoZI
hvcNAQEFBQADggEBAG5+C5SUS8ypDyqGjNSuHT7oOn0cd1td0uAupGr4MbN7yaLv
jeDVhqzHFYW0Smz4eX36V29+0mSKEj+q3pmtPbC9gz0TTUwWwEn37SmpNKkMV24+
pQnbwAy/QCycVZEqkI5QrAm1sr997BdQ5Pde/HfuXaqqUPXEZSaM40sdcV0uVTpG
tc+/H9bBAgarshOJ4P9g+7x5zf7aoU1DhTQqj4X7OPyXrL+Zs+Nosg1ubVBVyLdc
ZblkvJ0BJLT1vaOPbI2ITCyuXCpFm2NbzjRqUA4eW5AdqJncKLtHv43wESZgrC5k
w6pwuc3qj4Nw9bIsBcHE4t+d0HIkdnsSA98cW10=
-----END CERTIFICATE-----
