Certificate:
    Data:
        Version: 3 (0x2)
        Serial Number: 268435703 (0x100000f7)
    Signature Algorithm: sha1WithRSAEncryption
        Issuer: C=DE, ST=Hessen, O=privacyidea, CN=CA001
        Validity
            Not Before: Sep 27 20:20:07 2016 GMT
            Not After : Sep 27 20:20:07 2017 GMT
        Subject: C=DE, ST=Hessen, O=privacyidea, CN=requester.localdomain
        Subject Public Key Info:
            Public Key Algorithm: rsaEncryption
                Public-Key: (2048 bit)
                Modulus:
                    00:cd:be:14:4f:fa:ce:01:3f:42:22:1b:1d:9c:af:
                    dd:92:d2:7f:db:6c:b7:3e:39:43:43:6b:13:03:f1:
                    05:f4:07:74:bc:76:69:28:0b:af:19:8e:d7:fc:e3:
                    cd:c6:58:f2:ca:7f:08:6d:53:fc:07:02:44:24:c6:
                    b4:34:4c:8c:04:fe:33:0e:40:e2:20:ba:02:73:5a:
                    f7:f5:4f:63:6e:cc:c6:b6:df:54:1d:37:39:7d:51:
                    36:26:5f:bd:dc:3f:a8:8b:6b:a2:ae:b6:9d:d6:21:
                    e7:df:41:b8:7a:28:2a:68:48:ca:a8:2d:ed:e1:e9:
                    46:5e:5a:72:6d:b4:84:38:87:91:fd:94:11:0b:28:
                    84:c6:c2:2f:2a:fb:01:f9:36:7a:09:75:d1:33:88:
                    3c:73:41:5b:c8:bf:94:89:70:a1:f0:c0:b9:2e:50:
                    53:1e:b1:17:64:69:f4:2d:81:e0:a9:0d:0e:32:e9:
                    ba:55:8a:85:f1:1b:6f:49:79:b4:7f:88:c3:0d:3e:
                    54:88:9b:3d:1f:38:8c:04:f3:ee:6a:63:2b:f5:c6:
                    db:b4:83:aa:c4:78:41:3a:7d:4b:e1:c8:3e:71:ca:
                    1b:61:59:ea:c6:c4:ca:32:5e:c9:e9:bf:12:29:e6:
                    c6:c3:63:fe:a0:55:da:7a:f1:60:98:4d:26:ed:fa:
                    70:2d
                Exponent: 65537 (0x10001)
        X509v3 extensions:
            X509v3 Key Usage: 
                Digital Signature, Key Encipherment
            X509v3 Basic Constraints: 
                CA:FALSE
            Netscape Cert Type: 
                SSL Server
            Netscape Comment: 
                OpenSSL Generated Server Certificate
            X509v3 Subject Key Identifier: 
                53:3F:ED:5D:09:07:B3:65:7B:AB:45:C9:24:5B:09:77:80:0A:96:ED
            X509v3 Authority Key Identifier: 
                keyid:F4:A7:C0:CC:91:46:AF:64:F3:91:F2:27:F8:C8:B2:6F:8A:87:32:73
                DirName:/C=DE/ST=Hessen/O=privacyidea/CN=CA001
                serial:FB:C8:EB:AC:83:CD:12:07

            X509v3 Extended Key Usage: 
                TLS Web Server Authentication
    Signature Algorithm: sha1WithRSAEncryption
         35:1d:8f:6b:ee:72:74:73:a7:c8:cb:d5:16:9d:cd:8a:ad:3b:
         1a:ba:28:7e:f5:93:dd:f6:37:21:f9:d7:67:6f:aa:8e:2f:b0:
         46:1a:49:a6:94:fe:55:8c:00:3d:c4:99:a8:21:fc:bf:2d:7a:
         b7:56:8c:4f:8d:29:bc:dc:a5:27:2c:7a:bc:51:3f:5c:38:9b:
         17:7b:be:94:f3:36:1a:57:31:d5:01:5c:6e:d5:9d:fc:c4:d1:
         6f:cd:88:58:6f:1e:36:f3:4b:35:02:17:5e:bd:6a:67:b5:4d:
         2b:0b:75:89:92:a4:ea:e1:66:d6:ce:6d:11:02:48:dc:5d:5e:
         aa:e2:17:25:2a:f0:44:53:55:10:2a:ff:33:62:1b:07:6f:29:
         d4:86:4a:4d:81:62:de:e1:a3:48:d0:c8:3f:9e:9b:01:9d:93:
         f1:da:2b:4b:20:9e:93:ba:0d:07:c4:af:0f:ce:00:1b:c6:96:
         96:b3:30:1a:0d:67:55:ee:8c:a0:c5:75:80:f7:f5:15:0f:ae:
         b0:3c:9c:00:49:13:45:84:4d:7a:c9:aa:e7:ff:50:d1:12:93:
         83:b3:48:8f:3b:14:d8:0d:0c:ac:1a:7e:4a:53:b1:08:e6:52:
         0e:1f:46:30:d4:c8:e9:92:30:b1:67:79:c1:55:8e:18:fd:fe:
         e9:b0:ec:79
-----BEGIN CERTIFICATE-----
MIIEJjCCAw6gAwIBAgIEEAAA9zANBgkqhkiG9w0BAQUFADBEMQswCQYDVQQGEwJE
RTEPMA0GA1UECAwGSGVzc2VuMRQwEgYDVQQKDAtwcml2YWN5aWRlYTEOMAwGA1UE
AwwFQ0EwMDEwHhcNMTYwOTI3MjAyMDA3WhcNMTcwOTI3MjAyMDA3WjBUMQswCQYD
VQQGEwJERTEPMA0GA1UECAwGSGVzc2VuMRQwEgYDVQQKDAtwcml2YWN5aWRlYTEe
MBwGA1UEAwwVcmVxdWVzdGVyLmxvY2FsZG9tYWluMIIBIjANBgkqhkiG9w0BAQEF
AAOCAQ8AMIIBCgKCAQEAzb4UT/rOAT9CIhsdnK/dktJ/22y3PjlDQ2sTA/EF9Ad0
vHZpKAuvGY7X/OPNxljyyn8IbVP8BwJEJMa0NEyMBP4zDkDiILoCc1r39U9jbszG
tt9UHTc5fVE2Jl+93D+oi2uirrad1iHn30G4eigqaEjKqC3t4elGXlpybbSEOIeR
/ZQRCyiExsIvKvsB+TZ6CXXRM4g8c0FbyL+UiXCh8MC5LlBTHrEXZGn0LYHgqQ0O
Mum6VYqF8RtvSXm0f4jDDT5UiJs9HziMBPPuamMr9cbbtIOqxHhBOn1L4cg+ccob
YVnqxsTKMl7J6b8SKebGw2P+oFXaevFgmE0m7fpwLQIDAQABo4IBDjCCAQowCwYD
VR0PBAQDAgWgMAkGA1UdEwQCMAAwEQYJYIZIAYb4QgEBBAQDAgZAMDMGCWCGSAGG
+EIBDQQmFiRPcGVuU1NMIEdlbmVyYXRlZCBTZXJ2ZXIgQ2VydGlmaWNhdGUwHQYD
VR0OBBYEFFM/7V0JB7Nle6tFySRbCXeACpbtMHQGA1UdIwRtMGuAFPSnwMyRRq9k
85HyJ/jIsm+KhzJzoUikRjBEMQswCQYDVQQGEwJERTEPMA0GA1UECAwGSGVzc2Vu
MRQwEgYDVQQKDAtwcml2YWN5aWRlYTEOMAwGA1UEAwwFQ0EwMDGCCQD7yOusg80S
BzATBgNVHSUEDDAKBggrBgEFBQcDATANBgkqhkiG9w0BAQUFAAOCAQEANR2Pa+5y
dHOnyMvVFp3Niq07GroofvWT3fY3IfnXZ2+qji+wRhpJppT+VYwAPcSZqCH8vy16
t1aMT40pvNylJyx6vFE/XDibF3u+lPM2Glcx1QFcbtWd/MTRb82IWG8eNvNLNQIX
Xr1qZ7VNKwt1iZKk6uFm1s5tEQJI3F1equIXJSrwRFNVECr/M2IbB28p1IZKTYFi
3uGjSNDIP56bAZ2T8dorSyCek7oNB8SvD84AG8aWlrMwGg1nVe6MoMV1gPf1FQ+u
sDycAEkTRYRNesmq5/9Q0RKTg7NIjzsU2A0MrBp+SlOxCOZSDh9GMNTI6ZIwsWd5
wVWOGP3+6bDseQ==
-----END CERTIFICATE-----
