Certificate:
    Data:
        Version: 3 (0x2)
        Serial Number: 268435673 (0x100000d9)
    Signature Algorithm: sha1WithRSAEncryption
        Issuer: C=DE, ST=Hessen, O=privacyidea, CN=CA001
        Validity
            Not Before: Dec  5 13:38:30 2016 GMT
            Not After : Dec  5 13:38:30 2017 GMT
        Subject: OU=realm1, CN=cornelius/emailAddress=user@localhost.localdomain
        Subject Public Key Info:
            Public Key Algorithm: rsaEncryption
                Public-Key: (2048 bit)
                Modulus:
                    00:db:9c:90:a4:90:ab:c0:d3:dc:14:16:ce:4c:51:
                    fe:96:26:18:6d:61:08:a0:68:33:6a:de:f8:df:2a:
                    2d:07:52:92:f1:c6:71:e3:0f:f5:e6:08:79:c5:c0:
                    93:8c:f1:e4:6a:88:50:b2:45:b6:d3:ce:87:f6:1e:
                    59:71:f4:50:9d:ac:2d:8f:54:19:0d:e6:0d:a8:5c:
                    78:aa:45:4b:99:0b:1b:de:59:37:b6:3a:30:91:af:
                    8e:cf:c7:f1:18:11:fe:2f:d8:0e:f6:16:95:14:f8:
                    ff:55:18:b4:33:98:6a:8e:c1:c0:86:fe:b8:5a:f3:
                    28:ed:67:c2:a9:36:f2:8c:d9:a1:ef:d8:be:9a:94:
                    b8:14:fe:05:28:c0:e0:a5:0d:30:48:87:6a:04:c2:
                    59:08:c2:30:4f:0e:e8:60:72:43:3c:55:6c:30:97:
                    70:f9:5a:0e:ef:0b:3b:df:ce:44:01:c5:99:7e:f6:
                    9d:e4:14:ff:d2:f5:5d:50:e3:68:21:85:c3:47:a4:
                    2a:4c:2e:fa:65:36:0e:12:e2:58:a7:68:70:ed:6a:
                    ad:58:af:df:de:c8:96:35:8c:eb:57:ee:5e:39:f9:
                    aa:17:c8:08:d1:35:08:07:80:09:1a:c6:51:17:e2:
                    58:5f:d9:1b:95:81:88:96:ed:05:77:05:d3:33:31:
                    fe:79
                Exponent: 65537 (0x10001)
        X509v3 extensions:
            X509v3 Key Usage: 
                Digital Signature, Key Encipherment
            X509v3 Basic Constraints: 
                CA:FALSE
            Netscape Cert Type: 
                SSL Server
            Netscape Comment: 
                OpenSSL Generated Server Certificate
            X509v3 Subject Key Identifier: 
                27:DE:BF:9A:8A:BF:D6:FD:1B:03:35:53:6F:FF:F4:40:20:8D:0B:09
            X509v3 Authority Key Identifier: 
                keyid:F4:A7:C0:CC:91:46:AF:64:F3:91:F2:27:F8:C8:B2:6F:8A:87:32:73
                DirName:/C=DE/ST=Hessen/O=privacyidea/CN=CA001
                serial:FB:C8:EB:AC:83:CD:12:07

            X509v3 Extended Key Usage: 
                TLS Web Server Authentication
    Signature Algorithm: sha1WithRSAEncryption
         0f:24:b5:82:47:04:bf:b2:38:ee:67:84:63:38:ef:a7:48:54:
         84:ed:ea:e0:22:12:ed:8b:5b:83:c8:09:ac:d9:9b:a1:21:c3:
         9e:66:a9:fb:c4:1b:e3:e3:70:28:36:67:a3:51:dd:85:0c:22:
         c7:ec:c7:38:d4:f4:12:b2:dc:d0:01:77:17:5b:6c:95:af:92:
         c6:89:06:ab:f8:a0:1a:c8:3a:54:de:f9:54:a3:b8:f9:fc:6d:
         59:39:6d:2b:40:5f:77:0a:a1:16:67:43:98:77:f5:63:37:4f:
         75:80:b5:0b:d5:25:ca:90:8e:21:d2:c0:eb:67:53:dd:86:2e:
         4c:cb:70:11:25:f4:80:65:cf:05:5f:c1:b2:b3:4b:89:48:31:
         fe:64:e5:04:f5:60:03:93:d0:0a:ae:e4:e4:bd:04:7b:bb:9b:
         7c:07:d3:3c:d5:27:d5:c9:a6:9b:32:78:1a:c6:14:c9:0f:3a:
         ea:dd:d2:98:75:c9:f8:70:7f:da:ee:7c:30:bf:7d:54:0a:9b:
         09:2d:46:9c:6b:70:70:e8:a1:46:44:d5:75:10:b5:30:94:8f:
         e8:48:bc:39:2e:9c:2f:19:81:8c:0a:fe:6a:79:19:7c:30:89:
         8e:50:29:0d:8c:a3:e8:da:07:53:44:bc:cc:46:60:d4:82:ff:
         d2:b1:c5:3b
-----BEGIN CERTIFICATE-----
MIIEIjCCAwqgAwIBAgIEEAAA2TANBgkqhkiG9w0BAQUFADBEMQswCQYDVQQGEwJE
RTEPMA0GA1UECAwGSGVzc2VuMRQwEgYDVQQKDAtwcml2YWN5aWRlYTEOMAwGA1UE
AwwFQ0EwMDEwHhcNMTYxMjA1MTMzODMwWhcNMTcxMjA1MTMzODMwWjBQMQ8wDQYD
VQQLDAZyZWFsbTExEjAQBgNVBAMMCWNvcm5lbGl1czEpMCcGCSqGSIb3DQEJARYa
dXNlckBsb2NhbGhvc3QubG9jYWxkb21haW4wggEiMA0GCSqGSIb3DQEBAQUAA4IB
DwAwggEKAoIBAQDbnJCkkKvA09wUFs5MUf6WJhhtYQigaDNq3vjfKi0HUpLxxnHj
D/XmCHnFwJOM8eRqiFCyRbbTzof2Hllx9FCdrC2PVBkN5g2oXHiqRUuZCxveWTe2
OjCRr47Px/EYEf4v2A72FpUU+P9VGLQzmGqOwcCG/rha8yjtZ8KpNvKM2aHv2L6a
lLgU/gUowOClDTBIh2oEwlkIwjBPDuhgckM8VWwwl3D5Wg7vCzvfzkQBxZl+9p3k
FP/S9V1Q42ghhcNHpCpMLvplNg4S4linaHDtaq1Yr9/eyJY1jOtX7l45+aoXyAjR
NQgHgAkaxlEX4lhf2RuVgYiW7QV3BdMzMf55AgMBAAGjggEOMIIBCjALBgNVHQ8E
BAMCBaAwCQYDVR0TBAIwADARBglghkgBhvhCAQEEBAMCBkAwMwYJYIZIAYb4QgEN
BCYWJE9wZW5TU0wgR2VuZXJhdGVkIFNlcnZlciBDZXJ0aWZpY2F0ZTAdBgNVHQ4E
FgQUJ96/moq/1v0bAzVTb//0QCCNCwkwdAYDVR0jBG0wa4AU9KfAzJFGr2TzkfIn
+Miyb4qHMnOhSKRGMEQxCzAJBgNVBAYTAkRFMQ8wDQYDVQQIDAZIZXNzZW4xFDAS
BgNVBAoMC3ByaXZhY3lpZGVhMQ4wDAYDVQQDDAVDQTAwMYIJAPvI66yDzRIHMBMG
A1UdJQQMMAoGCCsGAQUFBwMBMA0GCSqGSIb3DQEBBQUAA4IBAQAPJLWCRwS/sjju
Z4RjOO+nSFSE7ergIhLti1uDyAms2ZuhIcOeZqn7xBvj43AoNmejUd2FDCLH7Mc4
1PQSstzQAXcXW2yVr5LGiQar+KAayDpU3vlUo7j5/G1ZOW0rQF93CqEWZ0OYd/Vj
N091gLUL1SXKkI4h0sDrZ1Pdhi5My3ARJfSAZc8FX8Gys0uJSDH+ZOUE9WADk9AK
ruTkvQR7u5t8B9M81SfVyaabMngaxhTJDzrq3dKYdcn4cH/a7nwwv31UCpsJLUac
a3Bw6KFGRNV1ELUwlI/oSLw5LpwvGYGMCv5qeRl8MImOUCkNjKPo2gdTRLzMRmDU
gv/SscU7
-----END CERTIFICATE-----
