Certificate:
    Data:
        Version: 3 (0x2)
        Serial Number: 268435707 (0x100000fb)
    Signature Algorithm: sha1WithRSAEncryption
        Issuer: C=DE, ST=Hessen, O=privacyidea, CN=CA001
        Validity
            Not Before: Apr 26 13:13:34 2016 GMT
            Not After : Apr 26 13:13:34 2017 GMT
        Subject: OU=realm1, CN=cornelius/emailAddress=user@localhost.localdomain
        Subject Public Key Info:
            Public Key Algorithm: rsaEncryption
                Public-Key: (2048 bit)
                Modulus:
                    00:b9:c3:b2:be:74:5b:94:04:78:e7:97:99:25:83:
                    8b:06:1c:31:1a:00:58:5c:37:81:bf:25:e4:a6:7f:
                    d8:47:6c:15:9e:db:12:89:ff:1c:9c:03:09:41:46:
                    ae:ac:e3:e1:5d:7b:40:b9:49:ca:3a:c3:55:4d:c1:
                    34:82:5e:48:5b:b2:76:98:ff:9b:81:32:c2:bb:f0:
                    83:ae:36:eb:97:af:7e:1f:c0:75:20:b4:ea:8c:20:
                    d7:94:df:a9:79:f3:7d:82:2e:4b:0e:2b:19:9e:36:
                    12:2d:4d:d7:9c:5c:7b:b3:c2:55:6e:e1:56:da:a8:
                    f0:90:1d:94:d1:d5:7f:6b:ff:2f:a2:3f:c3:4b:27:
                    45:bd:97:8b:e7:c6:9e:ea:67:f1:09:e0:9e:b8:fc:
                    75:6a:93:9b:1b:8c:73:4c:75:71:f5:d8:48:2e:7d:
                    5a:b5:eb:05:ea:bb:82:84:44:e3:23:51:c1:02:84:
                    96:d7:15:74:dc:bc:78:de:7e:ae:50:e8:a9:f5:ec:
                    4c:3c:77:2c:3d:8a:00:fc:6d:c2:0f:f3:da:1c:30:
                    52:68:05:51:a8:31:d6:37:ba:37:4b:b7:65:cb:00:
                    aa:4d:5c:c6:55:af:c9:29:c2:b0:53:a4:1f:1e:9b:
                    00:93:0f:3b:b9:07:ce:68:6d:a2:1a:94:9c:8e:26:
                    91:b7
                Exponent: 65537 (0x10001)
        X509v3 extensions:
            X509v3 Key Usage: 
                Digital Signature, Key Encipherment
            X509v3 Basic Constraints: 
                CA:FALSE
            Netscape Cert Type: 
                SSL Server
            Netscape Comment: 
                OpenSSL Generated Server Certificate
            X509v3 Subject Key Identifier: 
                C1:85:A7:7D:BC:DC:F7:43:6A:81:FF:DB:23:01:69:F1:04:06:84:4D
            X509v3 Authority Key Identifier: 
                keyid:F4:A7:C0:CC:91:46:AF:64:F3:91:F2:27:F8:C8:B2:6F:8A:87:32:73
                DirName:/C=DE/ST=Hessen/O=privacyidea/CN=CA001
                serial:FB:C8:EB:AC:83:CD:12:07

            X509v3 Extended Key Usage: 
                TLS Web Server Authentication
    Signature Algorithm: sha1WithRSAEncryption
         50:a0:50:3f:c9:fa:f1:c5:2d:8e:bb:87:af:83:95:fa:f7:a1:
         4b:04:e3:3f:0b:db:69:26:6b:93:12:f9:0d:e6:42:b6:3b:c4:
         d3:56:6a:8b:e7:bd:03:c8:19:5f:09:62:48:47:2f:12:5c:18:
         19:7c:fd:98:20:3e:4c:3f:55:0c:f4:cb:44:65:c6:6c:36:ea:
         ef:11:2a:ec:18:db:d1:61:c4:70:d8:72:42:6a:5a:36:d0:bf:
         9b:58:da:2e:0c:c2:f3:0e:7b:1e:69:1b:71:99:b8:0d:a0:85:
         94:72:15:04:ea:3f:96:1c:00:dd:10:54:d2:21:44:0e:5e:e6:
         d4:85:8d:66:6d:f1:91:d6:42:8c:c2:0d:bc:16:b0:f4:d7:5d:
         96:d4:d8:43:f4:e8:fb:27:88:7d:84:1c:6f:2a:c5:15:ba:78:
         9e:dc:a3:be:05:86:3d:60:b6:7b:de:be:af:56:86:81:de:81:
         c5:f9:55:04:64:88:dc:36:99:60:4e:65:c8:69:2e:91:7c:c8:
         bb:56:4b:84:28:72:c2:21:17:46:16:4c:00:80:5b:01:ef:c3:
         61:ed:28:40:e3:f9:04:62:fe:82:fc:d5:10:96:86:a0:cf:a2:
         7a:3f:66:e5:68:60:e0:84:bc:d5:ea:7c:77:60:02:13:4a:38:
         c7:57:f9:ef
-----BEGIN CERTIFICATE-----
MIIEIjCCAwqgAwIBAgIEEAAA+zANBgkqhkiG9w0BAQUFADBEMQswCQYDVQQGEwJE
RTEPMA0GA1UECAwGSGVzc2VuMRQwEgYDVQQKDAtwcml2YWN5aWRlYTEOMAwGA1UE
AwwFQ0EwMDEwHhcNMTYwNDI2MTMxMzM0WhcNMTcwNDI2MTMxMzM0WjBQMQ8wDQYD
VQQLEwZyZWFsbTExEjAQBgNVBAMTCWNvcm5lbGl1czEpMCcGCSqGSIb3DQEJARYa
dXNlckBsb2NhbGhvc3QubG9jYWxkb21haW4wggEiMA0GCSqGSIb3DQEBAQUAA4IB
DwAwggEKAoIBAQC5w7K+dFuUBHjnl5klg4sGHDEaAFhcN4G/JeSmf9hHbBWe2xKJ
/xycAwlBRq6s4+Fde0C5Sco6w1VNwTSCXkhbsnaY/5uBMsK78IOuNuuXr34fwHUg
tOqMINeU36l5832CLksOKxmeNhItTdecXHuzwlVu4VbaqPCQHZTR1X9r/y+iP8NL
J0W9l4vnxp7qZ/EJ4J64/HVqk5sbjHNMdXH12EgufVq16wXqu4KEROMjUcEChJbX
FXTcvHjefq5Q6Kn17Ew8dyw9igD8bcIP89ocMFJoBVGoMdY3ujdLt2XLAKpNXMZV
r8kpwrBTpB8emwCTDzu5B85obaIalJyOJpG3AgMBAAGjggEOMIIBCjALBgNVHQ8E
BAMCBaAwCQYDVR0TBAIwADARBglghkgBhvhCAQEEBAMCBkAwMwYJYIZIAYb4QgEN
BCYWJE9wZW5TU0wgR2VuZXJhdGVkIFNlcnZlciBDZXJ0aWZpY2F0ZTAdBgNVHQ4E
FgQUwYWnfbzc90Nqgf/bIwFp8QQGhE0wdAYDVR0jBG0wa4AU9KfAzJFGr2TzkfIn
+Miyb4qHMnOhSKRGMEQxCzAJBgNVBAYTAkRFMQ8wDQYDVQQIDAZIZXNzZW4xFDAS
BgNVBAoMC3ByaXZhY3lpZGVhMQ4wDAYDVQQDDAVDQTAwMYIJAPvI66yDzRIHMBMG
A1UdJQQMMAoGCCsGAQUFBwMBMA0GCSqGSIb3DQEBBQUAA4IBAQBQoFA/yfrxxS2O
u4evg5X696FLBOM/C9tpJmuTEvkN5kK2O8TTVmqL570DyBlfCWJIRy8SXBgZfP2Y
ID5MP1UM9MtEZcZsNurvESrsGNvRYcRw2HJCalo20L+bWNouDMLzDnseaRtxmbgN
oIWUchUE6j+WHADdEFTSIUQOXubUhY1mbfGR1kKMwg28FrD0112W1NhD9Oj7J4h9
hBxvKsUVunie3KO+BYY9YLZ73r6vVoaB3oHF+VUEZIjcNplgTmXIaS6RfMi7VkuE
KHLCIRdGFkwAgFsB78Nh7ShA4/kEYv6C/NUQloagz6J6P2blaGDghLzV6nx3YAIT
SjjHV/nv
-----END CERTIFICATE-----
