Certificate:
    Data:
        Version: 3 (0x2)
        Serial Number: 268435695 (0x100000ef)
    Signature Algorithm: sha1WithRSAEncryption
        Issuer: C=DE, ST=Hessen, O=privacyidea, CN=CA001
        Validity
            Not Before: Sep 27 19:59:05 2016 GMT
            Not After : Sep 27 19:59:05 2017 GMT
        Subject: CN=Steve Test/emailAddress=steve@openssl.org
        Subject Public Key Info:
            Public Key Algorithm: rsaEncryption
                Public-Key: (2048 bit)
                Modulus:
                    00:d2:81:89:20:51:48:0f:73:f4:11:32:24:d5:1f:
                    1c:fd:5c:f5:b6:e6:c5:f0:52:81:dc:d2:af:66:4a:
                    7c:93:31:61:5c:af:d1:6d:06:70:03:60:7c:72:0c:
                    88:dd:49:cd:9e:02:6c:d2:5a:d7:53:0f:f3:da:be:
                    69:64:b5:0f:0c:00:e3:b3:50:47:a3:b3:9b:ba:13:
                    50:d6:58:5a:4b:ab:39:e0:11:ca:0a:27:67:03:78:
                    22:66:6d:92:1e:1b:5c:49:ae:e6:6b:d1:8e:3b:9d:
                    06:d3:c6:ac:4d:53:43:10:ab:e8:96:c1:87:82:97:
                    99:8f:20:d3:99:12:37:31:84:e1:8a:ff:29:03:5f:
                    22:90:3e:7f:9b:e0:20:c1:ad:dc:ae:4c:39:1a:31:
                    96:17:02:8c:b2:d9:b4:0d:20:12:9b:7d:86:54:fd:
                    33:fd:c1:2a:62:46:f8:60:96:cf:6e:01:6f:22:df:
                    13:47:e7:97:ec:05:72:23:a3:62:f8:fa:ef:ac:9c:
                    72:f0:37:cb:2f:37:cf:90:a8:27:51:86:c6:d7:78:
                    08:8f:7e:25:a2:15:70:a2:fb:1c:b6:15:5e:a0:97:
                    8b:81:4c:09:28:8a:27:3b:94:bc:71:db:5b:71:37:
                    9a:2b:16:e0:6f:b5:c9:f5:4b:4f:20:ba:65:cf:af:
                    ad:ad
                Exponent: 65537 (0x10001)
        X509v3 extensions:
            X509v3 Key Usage: 
                Digital Signature, Key Encipherment
            X509v3 Basic Constraints: 
                CA:FALSE
            Netscape Cert Type: 
                SSL Server
            Netscape Comment: 
                OpenSSL Generated Server Certificate
            X509v3 Subject Key Identifier: 
                E5:25:6D:3E:AF:0D:DD:3F:4C:F2:45:19:39:D5:14:DB:7E:9C:C0:AD
            X509v3 Authority Key Identifier: 
                keyid:F4:A7:C0:CC:91:46:AF:64:F3:91:F2:27:F8:C8:B2:6F:8A:87:32:73
                DirName:/C=DE/ST=Hessen/O=privacyidea/CN=CA001
                serial:FB:C8:EB:AC:83:CD:12:07

            X509v3 Extended Key Usage: 
                TLS Web Server Authentication
    Signature Algorithm: sha1WithRSAEncryption
         9a:24:6b:40:0a:82:19:ff:9e:38:bc:2d:cd:5a:fe:5e:56:dd:
         65:0a:2d:09:aa:c5:88:d0:d9:8e:4d:75:45:e0:8b:6e:08:cb:
         9c:1d:13:4a:14:c9:8d:0b:5c:46:b7:f8:1f:24:9f:3b:cc:0d:
         5d:29:3f:a5:5b:99:7e:8b:7d:72:a8:5f:0c:b2:10:f0:36:d4:
         35:82:0a:75:56:71:50:ce:ba:51:87:43:97:21:41:a0:aa:67:
         ef:2d:8b:90:4f:cc:95:b5:d7:a8:78:df:78:7e:74:06:a7:fb:
         3f:e0:62:02:ef:74:f5:a3:cd:5c:7f:f8:6f:43:98:72:81:b2:
         ae:c8:5d:46:b6:5c:cb:97:0c:fc:f9:02:49:dd:13:2a:b1:9e:
         bd:98:03:a8:94:cb:ca:95:68:3f:55:f2:ce:5a:1d:47:d9:62:
         80:53:b1:0c:8a:1f:44:10:a0:c5:6c:54:5b:da:57:4b:8d:6f:
         f0:71:1b:dc:ac:31:dd:60:9c:86:6e:1d:7d:cc:c2:0e:71:0b:
         3f:7e:3d:aa:59:3f:ee:e2:5a:a9:ce:a6:c3:73:e5:58:80:a7:
         6a:17:de:b5:bf:dc:d3:9d:21:70:69:9d:65:78:95:0b:dc:15:
         76:7e:a2:d1:08:75:f1:8b:10:52:01:53:88:d8:cf:91:b3:7f:
         aa:21:52:ae
-----BEGIN CERTIFICATE-----
MIIECTCCAvGgAwIBAgIEEAAA7zANBgkqhkiG9w0BAQUFADBEMQswCQYDVQQGEwJE
RTEPMA0GA1UECAwGSGVzc2VuMRQwEgYDVQQKDAtwcml2YWN5aWRlYTEOMAwGA1UE
AwwFQ0EwMDEwHhcNMTYwOTI3MTk1OTA1WhcNMTcwOTI3MTk1OTA1WjA3MRMwEQYD
VQQDDApTdGV2ZSBUZXN0MSAwHgYJKoZIhvcNAQkBFhFzdGV2ZUBvcGVuc3NsLm9y
ZzCCASIwDQYJKoZIhvcNAQEBBQADggEPADCCAQoCggEBANKBiSBRSA9z9BEyJNUf
HP1c9bbmxfBSgdzSr2ZKfJMxYVyv0W0GcANgfHIMiN1JzZ4CbNJa11MP89q+aWS1
DwwA47NQR6Ozm7oTUNZYWkurOeARygonZwN4ImZtkh4bXEmu5mvRjjudBtPGrE1T
QxCr6JbBh4KXmY8g05kSNzGE4Yr/KQNfIpA+f5vgIMGt3K5MORoxlhcCjLLZtA0g
Ept9hlT9M/3BKmJG+GCWz24BbyLfE0fnl+wFciOjYvj676yccvA3yy83z5CoJ1GG
xtd4CI9+JaIVcKL7HLYVXqCXi4FMCSiKJzuUvHHbW3E3misW4G+1yfVLTyC6Zc+v
ra0CAwEAAaOCAQ4wggEKMAsGA1UdDwQEAwIFoDAJBgNVHRMEAjAAMBEGCWCGSAGG
+EIBAQQEAwIGQDAzBglghkgBhvhCAQ0EJhYkT3BlblNTTCBHZW5lcmF0ZWQgU2Vy
dmVyIENlcnRpZmljYXRlMB0GA1UdDgQWBBTlJW0+rw3dP0zyRRk51RTbfpzArTB0
BgNVHSMEbTBrgBT0p8DMkUavZPOR8if4yLJviocyc6FIpEYwRDELMAkGA1UEBhMC
REUxDzANBgNVBAgMBkhlc3NlbjEUMBIGA1UECgwLcHJpdmFjeWlkZWExDjAMBgNV
BAMMBUNBMDAxggkA+8jrrIPNEgcwEwYDVR0lBAwwCgYIKwYBBQUHAwEwDQYJKoZI
hvcNAQEFBQADggEBAJoka0AKghn/nji8Lc1a/l5W3WUKLQmqxYjQ2Y5NdUXgi24I
y5wdE0oUyY0LXEa3+B8knzvMDV0pP6VbmX6LfXKoXwyyEPA21DWCCnVWcVDOulGH
Q5chQaCqZ+8ti5BPzJW116h433h+dAan+z/gYgLvdPWjzVx/+G9DmHKBsq7IXUa2
XMuXDPz5AkndEyqxnr2YA6iUy8qVaD9V8s5aHUfZYoBTsQyKH0QQoMVsVFvaV0uN
b/BxG9ysMd1gnIZuHX3Mwg5xCz9+PapZP+7iWqnOpsNz5ViAp2oX3rW/3NOdIXBp
nWV4lQvcFXZ+otEIdfGLEFIBU4jYz5Gzf6ohUq4=
-----END CERTIFICATE-----
