Certificate:
    Data:
        Version: 3 (0x2)
        Serial Number: 268435678 (0x100000de)
    Signature Algorithm: sha1WithRSAEncryption
        Issuer: C=DE, ST=Hessen, O=privacyidea, CN=CA001
        Validity
            Not Before: Sep 30 16:40:23 2016 GMT
            Not After : Sep 30 16:40:23 2017 GMT
        Subject: C=DE, ST=Hessen, O=privacyidea, CN=requester.localdomain
        Subject Public Key Info:
            Public Key Algorithm: rsaEncryption
                Public-Key: (2048 bit)
                Modulus:
                    00:cd:be:14:4f:fa:ce:01:3f:42:22:1b:1d:9c:af:
                    dd:92:d2:7f:db:6c:b7:3e:39:43:43:6b:13:03:f1:
                    05:f4:07:74:bc:76:69:28:0b:af:19:8e:d7:fc:e3:
                    cd:c6:58:f2:ca:7f:08:6d:53:fc:07:02:44:24:c6:
                    b4:34:4c:8c:04:fe:33:0e:40:e2:20:ba:02:73:5a:
                    f7:f5:4f:63:6e:cc:c6:b6:df:54:1d:37:39:7d:51:
                    36:26:5f:bd:dc:3f:a8:8b:6b:a2:ae:b6:9d:d6:21:
                    e7:df:41:b8:7a:28:2a:68:48:ca:a8:2d:ed:e1:e9:
                    46:5e:5a:72:6d:b4:84:38:87:91:fd:94:11:0b:28:
                    84:c6:c2:2f:2a:fb:01:f9:36:7a:09:75:d1:33:88:
                    3c:73:41:5b:c8:bf:94:89:70:a1:f0:c0:b9:2e:50:
                    53:1e:b1:17:64:69:f4:2d:81:e0:a9:0d:0e:32:e9:
                    ba:55:8a:85:f1:1b:6f:49:79:b4:7f:88:c3:0d:3e:
                    54:88:9b:3d:1f:38:8c:04:f3:ee:6a:63:2b:f5:c6:
                    db:b4:83:aa:c4:78:41:3a:7d:4b:e1:c8:3e:71:ca:
                    1b:61:59:ea:c6:c4:ca:32:5e:c9:e9:bf:12:29:e6:
                    c6:c3:63:fe:a0:55:da:7a:f1:60:98:4d:26:ed:fa:
                    70:2d
                Exponent: 65537 (0x10001)
        X509v3 extensions:
            X509v3 Key Usage: 
                Digital Signature, Key Encipherment
            X509v3 Basic Constraints: 
                CA:FALSE
            Netscape Cert Type: 
                SSL Server
            Netscape Comment: 
                OpenSSL Generated Server Certificate
            X509v3 Subject Key Identifier: 
                53:3F:ED:5D:09:07:B3:65:7B:AB:45:C9:24:5B:09:77:80:0A:96:ED
            X509v3 Authority Key Identifier: 
                keyid:F4:A7:C0:CC:91:46:AF:64:F3:91:F2:27:F8:C8:B2:6F:8A:87:32:73
                DirName:/C=DE/ST=Hessen/O=privacyidea/CN=CA001
                serial:FB:C8:EB:AC:83:CD:12:07

            X509v3 Extended Key Usage: 
                TLS Web Server Authentication
    Signature Algorithm: sha1WithRSAEncryption
         31:94:3a:3d:3e:4c:13:04:ac:c3:a9:66:d6:f4:2f:d1:8d:9c:
         20:1e:79:58:de:78:c5:a2:26:3c:2e:17:ad:43:23:17:7c:17:
         18:d2:67:b4:d1:02:ae:4e:bb:4c:ef:53:0f:38:b6:e7:6d:27:
         14:1f:26:06:3f:c2:69:cf:27:4b:0e:e9:59:75:c3:86:68:93:
         0d:e8:1f:57:58:dd:99:36:5e:7a:83:19:bb:8f:7d:0a:72:59:
         48:5a:e3:70:ee:42:cd:29:fe:6b:69:8f:67:15:e0:7e:b8:33:
         4e:a5:0b:10:c4:03:7b:ef:60:c3:53:02:fb:7f:d6:d2:46:8f:
         df:9d:d6:e7:26:69:40:09:22:c0:8e:79:a2:98:7a:92:09:cd:
         37:19:dd:1c:61:dd:d5:62:41:02:ef:72:54:d0:56:83:0a:63:
         94:05:6c:5f:8d:7c:57:0b:b5:36:58:59:21:db:6a:45:82:7a:
         14:2a:1e:e5:f1:a8:b3:7d:19:95:65:4a:5e:a8:57:b4:28:36:
         c4:13:40:76:2b:c8:c4:5c:00:cb:f0:9b:82:f8:7f:90:35:aa:
         11:9f:0d:4e:c1:92:15:56:6b:b7:e9:57:d3:be:75:6a:fa:c7:
         b4:8c:d8:5a:5c:af:1d:c9:e2:d1:10:89:60:6a:00:8c:17:1a:
         bd:8d:17:7d
-----BEGIN CERTIFICATE-----
MIIEJjCCAw6gAwIBAgIEEAAA3jANBgkqhkiG9w0BAQUFADBEMQswCQYDVQQGEwJE
RTEPMA0GA1UECAwGSGVzc2VuMRQwEgYDVQQKDAtwcml2YWN5aWRlYTEOMAwGA1UE
AwwFQ0EwMDEwHhcNMTYwOTMwMTY0MDIzWhcNMTcwOTMwMTY0MDIzWjBUMQswCQYD
VQQGEwJERTEPMA0GA1UECAwGSGVzc2VuMRQwEgYDVQQKDAtwcml2YWN5aWRlYTEe
MBwGA1UEAwwVcmVxdWVzdGVyLmxvY2FsZG9tYWluMIIBIjANBgkqhkiG9w0BAQEF
AAOCAQ8AMIIBCgKCAQEAzb4UT/rOAT9CIhsdnK/dktJ/22y3PjlDQ2sTA/EF9Ad0
vHZpKAuvGY7X/OPNxljyyn8IbVP8BwJEJMa0NEyMBP4zDkDiILoCc1r39U9jbszG
tt9UHTc5fVE2Jl+93D+oi2uirrad1iHn30G4eigqaEjKqC3t4elGXlpybbSEOIeR
/ZQRCyiExsIvKvsB+TZ6CXXRM4g8c0FbyL+UiXCh8MC5LlBTHrEXZGn0LYHgqQ0O
Mum6VYqF8RtvSXm0f4jDDT5UiJs9HziMBPPuamMr9cbbtIOqxHhBOn1L4cg+ccob
YVnqxsTKMl7J6b8SKebGw2P+oFXaevFgmE0m7fpwLQIDAQABo4IBDjCCAQowCwYD
VR0PBAQDAgWgMAkGA1UdEwQCMAAwEQYJYIZIAYb4QgEBBAQDAgZAMDMGCWCGSAGG
+EIBDQQmFiRPcGVuU1NMIEdlbmVyYXRlZCBTZXJ2ZXIgQ2VydGlmaWNhdGUwHQYD
VR0OBBYEFFM/7V0JB7Nle6tFySRbCXeACpbtMHQGA1UdIwRtMGuAFPSnwMyRRq9k
85HyJ/jIsm+KhzJzoUikRjBEMQswCQYDVQQGEwJERTEPMA0GA1UECAwGSGVzc2Vu
MRQwEgYDVQQKDAtwcml2YWN5aWRlYTEOMAwGA1UEAwwFQ0EwMDGCCQD7yOusg80S
BzATBgNVHSUEDDAKBggrBgEFBQcDATANBgkqhkiG9w0BAQUFAAOCAQEAMZQ6PT5M
EwSsw6lm1vQv0Y2cIB55WN54xaImPC4XrUMjF3wXGNJntNECrk67TO9TDzi2520n
FB8mBj/Cac8nSw7pWXXDhmiTDegfV1jdmTZeeoMZu499CnJZSFrjcO5CzSn+a2mP
ZxXgfrgzTqULEMQDe+9gw1MC+3/W0kaP353W5yZpQAkiwI55oph6kgnNNxndHGHd
1WJBAu9yVNBWgwpjlAVsX418Vwu1NlhZIdtqRYJ6FCoe5fGos30ZlWVKXqhXtCg2
xBNAdivIxFwAy/Cbgvh/kDWqEZ8NTsGSFVZrt+lX0751avrHtIzYWlyvHcni0RCJ
YGoAjBcavY0XfQ==
-----END CERTIFICATE-----
