Certificate:
    Data:
        Version: 3 (0x2)
        Serial Number: 268435694 (0x100000ee)
    Signature Algorithm: sha1WithRSAEncryption
        Issuer: C=DE, ST=Hessen, O=privacyidea, CN=CA001
        Validity
            Not Before: Sep 27 19:59:05 2016 GMT
            Not After : Sep 27 19:59:05 2017 GMT
        Subject: C=DE, ST=Hessen, O=privacyidea, CN=usercert
        Subject Public Key Info:
            Public Key Algorithm: rsaEncryption
                Public-Key: (2048 bit)
                Modulus:
                    00:dc:2f:d1:5f:29:97:d4:7c:c3:53:c8:30:bd:4b:
                    67:70:2c:24:6b:b8:5e:eb:21:7a:48:12:56:7c:81:
                    5c:48:75:b6:68:eb:f6:f2:98:4e:50:51:d1:7f:6c:
                    73:f3:0a:a7:ae:be:48:5e:e5:d6:e1:d9:2a:7c:32:
                    6e:4e:fd:08:f6:5a:54:49:23:73:c3:b9:07:18:d1:
                    ef:b3:ac:f8:8a:dc:94:96:a4:90:3a:8e:74:df:e6:
                    0d:37:1b:bd:5b:b7:25:1a:56:39:da:6f:91:aa:5e:
                    1c:74:f3:f9:7c:14:01:83:12:65:76:c7:bb:fe:36:
                    5b:95:e9:72:65:83:ed:3e:98:30:71:fa:87:dd:a3:
                    36:5a:30:03:2e:26:e0:61:d1:bf:02:3f:b6:06:1f:
                    4a:89:28:1c:5c:a2:ff:4e:be:94:e6:8c:e0:da:82:
                    f1:9d:29:32:48:30:73:b4:04:f6:42:1e:be:f7:e2:
                    32:32:27:3c:9d:89:2f:70:3e:85:9a:6f:5c:c5:09:
                    c0:8c:32:2f:72:22:c9:d2:95:1f:b6:ac:72:60:72:
                    b7:82:4d:6b:ce:5b:e3:00:d0:d2:2f:58:c6:e0:10:
                    e5:51:ca:4d:3b:2e:e6:7e:ab:84:d6:56:f1:93:35:
                    a0:93:64:26:81:75:2f:91:b5:16:06:38:0b:db:cc:
                    2d:07
                Exponent: 65537 (0x10001)
        X509v3 extensions:
            X509v3 Key Usage: 
                Digital Signature, Key Encipherment
            X509v3 Basic Constraints: 
                CA:FALSE
            Netscape Cert Type: 
                SSL Server
            Netscape Comment: 
                OpenSSL Generated Server Certificate
            X509v3 Subject Key Identifier: 
                FC:14:D1:F0:4B:8D:00:90:F2:F5:B8:71:9E:4E:97:C3:92:54:AD:0B
            X509v3 Authority Key Identifier: 
                keyid:F4:A7:C0:CC:91:46:AF:64:F3:91:F2:27:F8:C8:B2:6F:8A:87:32:73
                DirName:/C=DE/ST=Hessen/O=privacyidea/CN=CA001
                serial:FB:C8:EB:AC:83:CD:12:07

            X509v3 Extended Key Usage: 
                TLS Web Server Authentication
    Signature Algorithm: sha1WithRSAEncryption
         83:c8:f9:6c:03:dc:5b:62:47:ca:3a:01:c4:49:2f:c4:59:7f:
         a0:41:b3:5c:a4:6c:c9:8b:5a:38:ae:dd:8f:46:0c:0d:76:b3:
         3d:f9:90:84:00:5f:af:7c:88:2d:7e:cd:5c:4b:7e:ae:31:39:
         79:ea:29:32:c9:d2:3e:32:0c:5c:42:d4:d8:09:8f:d4:14:d7:
         cf:82:05:b0:8a:bd:12:ff:2f:76:55:01:cd:16:10:94:1c:80:
         19:8d:78:b9:30:be:96:08:d5:11:84:d9:18:5b:da:06:cf:60:
         54:63:cb:69:ff:48:d3:e1:51:d9:82:13:a5:9e:6b:d7:f9:08:
         e3:76:f6:02:ad:16:f5:22:7b:1f:f6:cb:59:a5:b3:7c:ae:db:
         56:26:20:87:e7:a4:a3:72:c5:a9:16:ce:5b:eb:ec:cc:03:f1:
         c5:4a:a8:1f:d2:a7:60:5c:e9:38:83:dc:60:2c:76:d1:36:8f:
         2b:5d:8d:06:f4:23:4b:b6:73:38:d4:5c:70:2e:d4:e8:08:3a:
         b3:f7:e1:0f:cb:ca:65:ad:c5:5a:bb:0b:fd:2c:da:d6:19:ab:
         75:2d:a9:28:9b:8b:d8:c1:01:9d:b0:b1:b0:a0:4a:0c:f0:ce:
         e7:b8:70:0a:57:f9:6a:32:3a:1e:d8:87:73:47:7c:f1:83:32:
         03:38:57:ea
-----BEGIN CERTIFICATE-----
MIIEGTCCAwGgAwIBAgIEEAAA7jANBgkqhkiG9w0BAQUFADBEMQswCQYDVQQGEwJE
RTEPMA0GA1UECAwGSGVzc2VuMRQwEgYDVQQKDAtwcml2YWN5aWRlYTEOMAwGA1UE
AwwFQ0EwMDEwHhcNMTYwOTI3MTk1OTA1WhcNMTcwOTI3MTk1OTA1WjBHMQswCQYD
VQQGEwJERTEPMA0GA1UECAwGSGVzc2VuMRQwEgYDVQQKDAtwcml2YWN5aWRlYTER
MA8GA1UEAwwIdXNlcmNlcnQwggEiMA0GCSqGSIb3DQEBAQUAA4IBDwAwggEKAoIB
AQDcL9FfKZfUfMNTyDC9S2dwLCRruF7rIXpIElZ8gVxIdbZo6/bymE5QUdF/bHPz
Cqeuvkhe5dbh2Sp8Mm5O/Qj2WlRJI3PDuQcY0e+zrPiK3JSWpJA6jnTf5g03G71b
tyUaVjnab5GqXhx08/l8FAGDEmV2x7v+NluV6XJlg+0+mDBx+ofdozZaMAMuJuBh
0b8CP7YGH0qJKBxcov9OvpTmjODagvGdKTJIMHO0BPZCHr734jIyJzydiS9wPoWa
b1zFCcCMMi9yIsnSlR+2rHJgcreCTWvOW+MA0NIvWMbgEOVRyk07LuZ+q4TWVvGT
NaCTZCaBdS+RtRYGOAvbzC0HAgMBAAGjggEOMIIBCjALBgNVHQ8EBAMCBaAwCQYD
VR0TBAIwADARBglghkgBhvhCAQEEBAMCBkAwMwYJYIZIAYb4QgENBCYWJE9wZW5T
U0wgR2VuZXJhdGVkIFNlcnZlciBDZXJ0aWZpY2F0ZTAdBgNVHQ4EFgQU/BTR8EuN
AJDy9bhxnk6Xw5JUrQswdAYDVR0jBG0wa4AU9KfAzJFGr2TzkfIn+Miyb4qHMnOh
SKRGMEQxCzAJBgNVBAYTAkRFMQ8wDQYDVQQIDAZIZXNzZW4xFDASBgNVBAoMC3By
aXZhY3lpZGVhMQ4wDAYDVQQDDAVDQTAwMYIJAPvI66yDzRIHMBMGA1UdJQQMMAoG
CCsGAQUFBwMBMA0GCSqGSIb3DQEBBQUAA4IBAQCDyPlsA9xbYkfKOgHESS/EWX+g
QbNcpGzJi1o4rt2PRgwNdrM9+ZCEAF+vfIgtfs1cS36uMTl56ikyydI+MgxcQtTY
CY/UFNfPggWwir0S/y92VQHNFhCUHIAZjXi5ML6WCNURhNkYW9oGz2BUY8tp/0jT
4VHZghOlnmvX+QjjdvYCrRb1Insf9stZpbN8rttWJiCH56SjcsWpFs5b6+zMA/HF
Sqgf0qdgXOk4g9xgLHbRNo8rXY0G9CNLtnM41FxwLtToCDqz9+EPy8plrcVauwv9
LNrWGat1Lakom4vYwQGdsLGwoEoM8M7nuHAKV/lqMjoe2IdzR3zxgzIDOFfq
-----END CERTIFICATE-----
