Certificate:
    Data:
        Version: 3 (0x2)
        Serial Number: 268435675 (0x100000db)
    Signature Algorithm: sha1WithRSAEncryption
        Issuer: C=DE, ST=Hessen, O=privacyidea, CN=CA001
        Validity
            Not Before: Sep 30 16:36:25 2016 GMT
            Not After : Sep 30 16:36:25 2017 GMT
        Subject: C=DE, ST=Hessen, O=privacyidea, CN=requester.localdomain
        Subject Public Key Info:
            Public Key Algorithm: rsaEncryption
                Public-Key: (2048 bit)
                Modulus:
                    00:cd:be:14:4f:fa:ce:01:3f:42:22:1b:1d:9c:af:
                    dd:92:d2:7f:db:6c:b7:3e:39:43:43:6b:13:03:f1:
                    05:f4:07:74:bc:76:69:28:0b:af:19:8e:d7:fc:e3:
                    cd:c6:58:f2:ca:7f:08:6d:53:fc:07:02:44:24:c6:
                    b4:34:4c:8c:04:fe:33:0e:40:e2:20:ba:02:73:5a:
                    f7:f5:4f:63:6e:cc:c6:b6:df:54:1d:37:39:7d:51:
                    36:26:5f:bd:dc:3f:a8:8b:6b:a2:ae:b6:9d:d6:21:
                    e7:df:41:b8:7a:28:2a:68:48:ca:a8:2d:ed:e1:e9:
                    46:5e:5a:72:6d:b4:84:38:87:91:fd:94:11:0b:28:
                    84:c6:c2:2f:2a:fb:01:f9:36:7a:09:75:d1:33:88:
                    3c:73:41:5b:c8:bf:94:89:70:a1:f0:c0:b9:2e:50:
                    53:1e:b1:17:64:69:f4:2d:81:e0:a9:0d:0e:32:e9:
                    ba:55:8a:85:f1:1b:6f:49:79:b4:7f:88:c3:0d:3e:
                    54:88:9b:3d:1f:38:8c:04:f3:ee:6a:63:2b:f5:c6:
                    db:b4:83:aa:c4:78:41:3a:7d:4b:e1:c8:3e:71:ca:
                    1b:61:59:ea:c6:c4:ca:32:5e:c9:e9:bf:12:29:e6:
                    c6:c3:63:fe:a0:55:da:7a:f1:60:98:4d:26:ed:fa:
                    70:2d
                Exponent: 65537 (0x10001)
        X509v3 extensions:
            X509v3 Key Usage: 
                Digital Signature, Key Encipherment
            X509v3 Basic Constraints: 
                CA:FALSE
            Netscape Cert Type: 
                SSL Server
            Netscape Comment: 
                OpenSSL Generated Server Certificate
            X509v3 Subject Key Identifier: 
                53:3F:ED:5D:09:07:B3:65:7B:AB:45:C9:24:5B:09:77:80:0A:96:ED
            X509v3 Authority Key Identifier: 
                keyid:F4:A7:C0:CC:91:46:AF:64:F3:91:F2:27:F8:C8:B2:6F:8A:87:32:73
                DirName:/C=DE/ST=Hessen/O=privacyidea/CN=CA001
                serial:FB:C8:EB:AC:83:CD:12:07

            X509v3 Extended Key Usage: 
                TLS Web Server Authentication
    Signature Algorithm: sha1WithRSAEncryption
         22:de:bb:e8:98:6b:cd:41:f7:06:aa:15:38:1e:7a:89:68:ff:
         f5:ae:0f:3b:05:03:db:ba:cc:ae:ea:2c:cc:1d:25:df:eb:e7:
         b0:8d:77:46:22:40:96:6b:2f:a7:26:ff:51:1a:39:4d:3e:95:
         1b:10:3d:7d:75:83:71:87:06:96:ea:26:92:2c:59:30:00:77:
         3f:8e:86:6f:10:f4:39:e6:d8:3b:4c:1f:6b:9f:91:ac:dd:6d:
         ae:b1:32:5a:e2:89:48:f5:02:9a:f4:1d:9e:1e:7b:09:3d:25:
         e3:43:79:cb:4e:ee:bc:8a:3b:da:0a:f5:81:f0:ea:22:62:9b:
         d2:5d:08:85:58:77:c0:2c:81:22:73:ec:77:9c:7c:33:87:d0:
         d9:7e:47:ec:ef:09:58:61:3c:b0:df:7f:95:6a:24:54:8a:dc:
         c1:24:4c:9c:01:55:7a:a1:5f:18:17:e9:0c:dc:95:2e:2f:c3:
         40:47:62:d8:22:3f:dc:2a:e6:e4:8e:89:c6:1d:15:2a:fe:14:
         f5:4e:c1:24:e3:b6:af:0d:3c:40:c4:20:5d:60:3d:32:01:13:
         e3:da:a2:eb:7c:4f:b7:bc:6e:5a:04:76:60:80:dd:67:ff:17:
         14:d7:b5:a5:ef:75:ee:89:f9:67:ed:90:11:eb:17:5c:d9:10:
         fd:c5:4c:4b
-----BEGIN CERTIFICATE-----
MIIEJjCCAw6gAwIBAgIEEAAA2zANBgkqhkiG9w0BAQUFADBEMQswCQYDVQQGEwJE
RTEPMA0GA1UECAwGSGVzc2VuMRQwEgYDVQQKDAtwcml2YWN5aWRlYTEOMAwGA1UE
AwwFQ0EwMDEwHhcNMTYwOTMwMTYzNjI1WhcNMTcwOTMwMTYzNjI1WjBUMQswCQYD
VQQGEwJERTEPMA0GA1UECAwGSGVzc2VuMRQwEgYDVQQKDAtwcml2YWN5aWRlYTEe
MBwGA1UEAwwVcmVxdWVzdGVyLmxvY2FsZG9tYWluMIIBIjANBgkqhkiG9w0BAQEF
AAOCAQ8AMIIBCgKCAQEAzb4UT/rOAT9CIhsdnK/dktJ/22y3PjlDQ2sTA/EF9Ad0
vHZpKAuvGY7X/OPNxljyyn8IbVP8BwJEJMa0NEyMBP4zDkDiILoCc1r39U9jbszG
tt9UHTc5fVE2Jl+93D+oi2uirrad1iHn30G4eigqaEjKqC3t4elGXlpybbSEOIeR
/ZQRCyiExsIvKvsB+TZ6CXXRM4g8c0FbyL+UiXCh8MC5LlBTHrEXZGn0LYHgqQ0O
Mum6VYqF8RtvSXm0f4jDDT5UiJs9HziMBPPuamMr9cbbtIOqxHhBOn1L4cg+ccob
YVnqxsTKMl7J6b8SKebGw2P+oFXaevFgmE0m7fpwLQIDAQABo4IBDjCCAQowCwYD
VR0PBAQDAgWgMAkGA1UdEwQCMAAwEQYJYIZIAYb4QgEBBAQDAgZAMDMGCWCGSAGG
+EIBDQQmFiRPcGVuU1NMIEdlbmVyYXRlZCBTZXJ2ZXIgQ2VydGlmaWNhdGUwHQYD
VR0OBBYEFFM/7V0JB7Nle6tFySRbCXeACpbtMHQGA1UdIwRtMGuAFPSnwMyRRq9k
85HyJ/jIsm+KhzJzoUikRjBEMQswCQYDVQQGEwJERTEPMA0GA1UECAwGSGVzc2Vu
MRQwEgYDVQQKDAtwcml2YWN5aWRlYTEOMAwGA1UEAwwFQ0EwMDGCCQD7yOusg80S
BzATBgNVHSUEDDAKBggrBgEFBQcDATANBgkqhkiG9w0BAQUFAAOCAQEAIt676Jhr
zUH3BqoVOB56iWj/9a4POwUD27rMruoszB0l3+vnsI13RiJAlmsvpyb/URo5TT6V
GxA9fXWDcYcGluomkixZMAB3P46GbxD0OebYO0wfa5+RrN1trrEyWuKJSPUCmvQd
nh57CT0l40N5y07uvIo72gr1gfDqImKb0l0IhVh3wCyBInPsd5x8M4fQ2X5H7O8J
WGE8sN9/lWokVIrcwSRMnAFVeqFfGBfpDNyVLi/DQEdi2CI/3Crm5I6Jxh0VKv4U
9U7BJOO2rw08QMQgXWA9MgET49qi63xPt7xuWgR2YIDdZ/8XFNe1pe917on5Z+2Q
EesXXNkQ/cVMSw==
-----END CERTIFICATE-----
