Certificate:
    Data:
        Version: 3 (0x2)
        Serial Number: 268435684 (0x100000e4)
    Signature Algorithm: sha1WithRSAEncryption
        Issuer: C=DE, ST=Hessen, O=privacyidea, CN=CA001
        Validity
            Not Before: Sep 30 16:50:59 2016 GMT
            Not After : Sep 30 16:50:59 2017 GMT
        Subject: C=DE, ST=Hessen, O=privacyidea, CN=requester.localdomain
        Subject Public Key Info:
            Public Key Algorithm: rsaEncryption
                Public-Key: (2048 bit)
                Modulus:
                    00:cd:be:14:4f:fa:ce:01:3f:42:22:1b:1d:9c:af:
                    dd:92:d2:7f:db:6c:b7:3e:39:43:43:6b:13:03:f1:
                    05:f4:07:74:bc:76:69:28:0b:af:19:8e:d7:fc:e3:
                    cd:c6:58:f2:ca:7f:08:6d:53:fc:07:02:44:24:c6:
                    b4:34:4c:8c:04:fe:33:0e:40:e2:20:ba:02:73:5a:
                    f7:f5:4f:63:6e:cc:c6:b6:df:54:1d:37:39:7d:51:
                    36:26:5f:bd:dc:3f:a8:8b:6b:a2:ae:b6:9d:d6:21:
                    e7:df:41:b8:7a:28:2a:68:48:ca:a8:2d:ed:e1:e9:
                    46:5e:5a:72:6d:b4:84:38:87:91:fd:94:11:0b:28:
                    84:c6:c2:2f:2a:fb:01:f9:36:7a:09:75:d1:33:88:
                    3c:73:41:5b:c8:bf:94:89:70:a1:f0:c0:b9:2e:50:
                    53:1e:b1:17:64:69:f4:2d:81:e0:a9:0d:0e:32:e9:
                    ba:55:8a:85:f1:1b:6f:49:79:b4:7f:88:c3:0d:3e:
                    54:88:9b:3d:1f:38:8c:04:f3:ee:6a:63:2b:f5:c6:
                    db:b4:83:aa:c4:78:41:3a:7d:4b:e1:c8:3e:71:ca:
                    1b:61:59:ea:c6:c4:ca:32:5e:c9:e9:bf:12:29:e6:
                    c6:c3:63:fe:a0:55:da:7a:f1:60:98:4d:26:ed:fa:
                    70:2d
                Exponent: 65537 (0x10001)
        X509v3 extensions:
            X509v3 Key Usage: 
                Digital Signature, Key Encipherment
            X509v3 Basic Constraints: 
                CA:FALSE
            Netscape Cert Type: 
                SSL Server
            Netscape Comment: 
                OpenSSL Generated Server Certificate
            X509v3 Subject Key Identifier: 
                53:3F:ED:5D:09:07:B3:65:7B:AB:45:C9:24:5B:09:77:80:0A:96:ED
            X509v3 Authority Key Identifier: 
                keyid:F4:A7:C0:CC:91:46:AF:64:F3:91:F2:27:F8:C8:B2:6F:8A:87:32:73
                DirName:/C=DE/ST=Hessen/O=privacyidea/CN=CA001
                serial:FB:C8:EB:AC:83:CD:12:07

            X509v3 Extended Key Usage: 
                TLS Web Server Authentication
    Signature Algorithm: sha1WithRSAEncryption
         ad:f9:da:2d:cf:04:29:f6:1e:41:30:7d:3e:3a:6e:1d:96:e3:
         cb:ca:73:de:46:29:2d:cd:e6:d9:0d:5d:a5:20:4d:0a:d6:aa:
         33:b2:10:2a:50:95:e6:1f:df:b9:f1:23:6c:9d:96:93:99:a5:
         d4:eb:d8:8b:37:04:83:2e:f6:be:e7:cb:28:f2:18:48:a5:bc:
         4d:1d:6e:33:da:dd:77:3e:77:4d:25:dd:c7:7d:4c:1b:8f:3e:
         66:61:5d:ad:46:57:f9:d6:8d:4c:7f:d0:7f:12:b2:77:a7:88:
         a3:74:6c:80:50:ae:1a:0e:bc:7f:ec:6e:24:d0:02:7e:dc:5d:
         77:c4:60:22:8e:97:77:72:03:8c:86:3f:ec:b2:51:5a:c3:03:
         0d:9a:32:e6:98:66:81:47:f0:84:94:0b:60:f5:f8:c6:23:dc:
         15:18:e0:8b:6f:64:1b:1b:d7:43:dd:90:4e:18:37:a2:59:b9:
         93:2b:f6:2b:27:38:90:47:eb:34:94:ca:99:2c:34:ee:20:74:
         be:25:32:1c:f7:96:d4:8a:70:59:3d:9f:49:b5:80:66:c6:93:
         2c:d6:91:f5:4d:35:9e:6d:d8:9a:64:11:95:6b:6c:fa:f2:7f:
         56:75:f7:c6:7a:6f:9f:39:16:c4:8f:0e:28:57:a1:cc:c1:4b:
         35:d5:5b:3b
-----BEGIN CERTIFICATE-----
MIIEJjCCAw6gAwIBAgIEEAAA5DANBgkqhkiG9w0BAQUFADBEMQswCQYDVQQGEwJE
RTEPMA0GA1UECAwGSGVzc2VuMRQwEgYDVQQKDAtwcml2YWN5aWRlYTEOMAwGA1UE
AwwFQ0EwMDEwHhcNMTYwOTMwMTY1MDU5WhcNMTcwOTMwMTY1MDU5WjBUMQswCQYD
VQQGEwJERTEPMA0GA1UECAwGSGVzc2VuMRQwEgYDVQQKDAtwcml2YWN5aWRlYTEe
MBwGA1UEAwwVcmVxdWVzdGVyLmxvY2FsZG9tYWluMIIBIjANBgkqhkiG9w0BAQEF
AAOCAQ8AMIIBCgKCAQEAzb4UT/rOAT9CIhsdnK/dktJ/22y3PjlDQ2sTA/EF9Ad0
vHZpKAuvGY7X/OPNxljyyn8IbVP8BwJEJMa0NEyMBP4zDkDiILoCc1r39U9jbszG
tt9UHTc5fVE2Jl+93D+oi2uirrad1iHn30G4eigqaEjKqC3t4elGXlpybbSEOIeR
/ZQRCyiExsIvKvsB+TZ6CXXRM4g8c0FbyL+UiXCh8MC5LlBTHrEXZGn0LYHgqQ0O
Mum6VYqF8RtvSXm0f4jDDT5UiJs9HziMBPPuamMr9cbbtIOqxHhBOn1L4cg+ccob
YVnqxsTKMl7J6b8SKebGw2P+oFXaevFgmE0m7fpwLQIDAQABo4IBDjCCAQowCwYD
VR0PBAQDAgWgMAkGA1UdEwQCMAAwEQYJYIZIAYb4QgEBBAQDAgZAMDMGCWCGSAGG
+EIBDQQmFiRPcGVuU1NMIEdlbmVyYXRlZCBTZXJ2ZXIgQ2VydGlmaWNhdGUwHQYD
VR0OBBYEFFM/7V0JB7Nle6tFySRbCXeACpbtMHQGA1UdIwRtMGuAFPSnwMyRRq9k
85HyJ/jIsm+KhzJzoUikRjBEMQswCQYDVQQGEwJERTEPMA0GA1UECAwGSGVzc2Vu
MRQwEgYDVQQKDAtwcml2YWN5aWRlYTEOMAwGA1UEAwwFQ0EwMDGCCQD7yOusg80S
BzATBgNVHSUEDDAKBggrBgEFBQcDATANBgkqhkiG9w0BAQUFAAOCAQEArfnaLc8E
KfYeQTB9PjpuHZbjy8pz3kYpLc3m2Q1dpSBNCtaqM7IQKlCV5h/fufEjbJ2Wk5ml
1OvYizcEgy72vufLKPIYSKW8TR1uM9rddz53TSXdx31MG48+ZmFdrUZX+daNTH/Q
fxKyd6eIo3RsgFCuGg68f+xuJNACftxdd8RgIo6Xd3IDjIY/7LJRWsMDDZoy5phm
gUfwhJQLYPX4xiPcFRjgi29kGxvXQ92QThg3olm5kyv2Kyc4kEfrNJTKmSw07iB0
viUyHPeW1IpwWT2fSbWAZsaTLNaR9U01nm3YmmQRlWts+vJ/VnX3xnpvnzkWxI8O
KFehzMFLNdVbOw==
-----END CERTIFICATE-----
