Certificate:
    Data:
        Version: 3 (0x2)
        Serial Number: 268435696 (0x100000f0)
    Signature Algorithm: sha1WithRSAEncryption
        Issuer: C=DE, ST=Hessen, O=privacyidea, CN=CA001
        Validity
            Not Before: Sep 27 20:02:02 2016 GMT
            Not After : Sep 27 20:02:02 2017 GMT
        Subject: C=DE, ST=Hessen, O=privacyidea, CN=requester.localdomain
        Subject Public Key Info:
            Public Key Algorithm: rsaEncryption
                Public-Key: (2048 bit)
                Modulus:
                    00:cd:be:14:4f:fa:ce:01:3f:42:22:1b:1d:9c:af:
                    dd:92:d2:7f:db:6c:b7:3e:39:43:43:6b:13:03:f1:
                    05:f4:07:74:bc:76:69:28:0b:af:19:8e:d7:fc:e3:
                    cd:c6:58:f2:ca:7f:08:6d:53:fc:07:02:44:24:c6:
                    b4:34:4c:8c:04:fe:33:0e:40:e2:20:ba:02:73:5a:
                    f7:f5:4f:63:6e:cc:c6:b6:df:54:1d:37:39:7d:51:
                    36:26:5f:bd:dc:3f:a8:8b:6b:a2:ae:b6:9d:d6:21:
                    e7:df:41:b8:7a:28:2a:68:48:ca:a8:2d:ed:e1:e9:
                    46:5e:5a:72:6d:b4:84:38:87:91:fd:94:11:0b:28:
                    84:c6:c2:2f:2a:fb:01:f9:36:7a:09:75:d1:33:88:
                    3c:73:41:5b:c8:bf:94:89:70:a1:f0:c0:b9:2e:50:
                    53:1e:b1:17:64:69:f4:2d:81:e0:a9:0d:0e:32:e9:
                    ba:55:8a:85:f1:1b:6f:49:79:b4:7f:88:c3:0d:3e:
                    54:88:9b:3d:1f:38:8c:04:f3:ee:6a:63:2b:f5:c6:
                    db:b4:83:aa:c4:78:41:3a:7d:4b:e1:c8:3e:71:ca:
                    1b:61:59:ea:c6:c4:ca:32:5e:c9:e9:bf:12:29:e6:
                    c6:c3:63:fe:a0:55:da:7a:f1:60:98:4d:26:ed:fa:
                    70:2d
                Exponent: 65537 (0x10001)
        X509v3 extensions:
            X509v3 Key Usage: 
                Digital Signature, Key Encipherment
            X509v3 Basic Constraints: 
                CA:FALSE
            Netscape Cert Type: 
                SSL Server
            Netscape Comment: 
                OpenSSL Generated Server Certificate
            X509v3 Subject Key Identifier: 
                53:3F:ED:5D:09:07:B3:65:7B:AB:45:C9:24:5B:09:77:80:0A:96:ED
            X509v3 Authority Key Identifier: 
                keyid:F4:A7:C0:CC:91:46:AF:64:F3:91:F2:27:F8:C8:B2:6F:8A:87:32:73
                DirName:/C=DE/ST=Hessen/O=privacyidea/CN=CA001
                serial:FB:C8:EB:AC:83:CD:12:07

            X509v3 Extended Key Usage: 
                TLS Web Server Authentication
    Signature Algorithm: sha1WithRSAEncryption
         5e:6d:9d:e4:1a:c4:e2:c3:71:34:16:42:12:d0:ac:a2:13:a9:
         e3:7f:b2:ba:c9:2c:f7:db:d1:38:c6:37:8e:5a:49:23:99:5c:
         f6:8a:b9:0a:30:03:ca:cb:3d:0c:96:a8:09:76:50:fd:88:c4:
         66:92:b6:95:3d:0b:70:26:cd:db:8a:a5:dd:8e:fa:16:39:06:
         c0:ef:db:f2:c1:82:e3:0b:c0:f3:c1:92:85:8a:fd:46:9c:e9:
         06:0f:5c:2f:11:b3:7d:f5:aa:9c:e8:b8:6c:c3:28:f1:a2:88:
         a3:08:8b:15:ff:9d:e5:86:1e:a9:4b:eb:7e:44:c4:f5:78:3c:
         16:a0:01:02:3e:4a:6d:4c:02:da:5d:b6:3a:4e:23:5f:0c:0a:
         b4:a3:bd:fb:bc:10:ce:42:e3:61:1e:18:e6:c4:10:5e:c9:5e:
         73:4f:97:6c:47:ce:94:0a:09:02:bf:5f:04:68:e8:d2:57:76:
         92:6f:8e:1e:6a:c6:0d:38:a1:a8:37:ed:1b:d6:57:86:6f:b7:
         e5:89:32:55:33:cf:c4:dd:61:2c:85:2d:53:61:54:70:9b:b3:
         ea:86:05:d0:96:6f:c6:da:4b:5b:0f:6f:1d:76:45:2f:c4:f7:
         c8:bf:77:dc:bf:cb:4b:53:17:0a:34:2e:99:56:8e:b6:f1:34:
         42:62:44:6c
-----BEGIN CERTIFICATE-----
MIIEJjCCAw6gAwIBAgIEEAAA8DANBgkqhkiG9w0BAQUFADBEMQswCQYDVQQGEwJE
RTEPMA0GA1UECAwGSGVzc2VuMRQwEgYDVQQKDAtwcml2YWN5aWRlYTEOMAwGA1UE
AwwFQ0EwMDEwHhcNMTYwOTI3MjAwMjAyWhcNMTcwOTI3MjAwMjAyWjBUMQswCQYD
VQQGEwJERTEPMA0GA1UECAwGSGVzc2VuMRQwEgYDVQQKDAtwcml2YWN5aWRlYTEe
MBwGA1UEAwwVcmVxdWVzdGVyLmxvY2FsZG9tYWluMIIBIjANBgkqhkiG9w0BAQEF
AAOCAQ8AMIIBCgKCAQEAzb4UT/rOAT9CIhsdnK/dktJ/22y3PjlDQ2sTA/EF9Ad0
vHZpKAuvGY7X/OPNxljyyn8IbVP8BwJEJMa0NEyMBP4zDkDiILoCc1r39U9jbszG
tt9UHTc5fVE2Jl+93D+oi2uirrad1iHn30G4eigqaEjKqC3t4elGXlpybbSEOIeR
/ZQRCyiExsIvKvsB+TZ6CXXRM4g8c0FbyL+UiXCh8MC5LlBTHrEXZGn0LYHgqQ0O
Mum6VYqF8RtvSXm0f4jDDT5UiJs9HziMBPPuamMr9cbbtIOqxHhBOn1L4cg+ccob
YVnqxsTKMl7J6b8SKebGw2P+oFXaevFgmE0m7fpwLQIDAQABo4IBDjCCAQowCwYD
VR0PBAQDAgWgMAkGA1UdEwQCMAAwEQYJYIZIAYb4QgEBBAQDAgZAMDMGCWCGSAGG
+EIBDQQmFiRPcGVuU1NMIEdlbmVyYXRlZCBTZXJ2ZXIgQ2VydGlmaWNhdGUwHQYD
VR0OBBYEFFM/7V0JB7Nle6tFySRbCXeACpbtMHQGA1UdIwRtMGuAFPSnwMyRRq9k
85HyJ/jIsm+KhzJzoUikRjBEMQswCQYDVQQGEwJERTEPMA0GA1UECAwGSGVzc2Vu
MRQwEgYDVQQKDAtwcml2YWN5aWRlYTEOMAwGA1UEAwwFQ0EwMDGCCQD7yOusg80S
BzATBgNVHSUEDDAKBggrBgEFBQcDATANBgkqhkiG9w0BAQUFAAOCAQEAXm2d5BrE
4sNxNBZCEtCsohOp43+yusks99vROMY3jlpJI5lc9oq5CjADyss9DJaoCXZQ/YjE
ZpK2lT0LcCbN24ql3Y76FjkGwO/b8sGC4wvA88GShYr9RpzpBg9cLxGzffWqnOi4
bMMo8aKIowiLFf+d5YYeqUvrfkTE9Xg8FqABAj5KbUwC2l22Ok4jXwwKtKO9+7wQ
zkLjYR4Y5sQQXslec0+XbEfOlAoJAr9fBGjo0ld2km+OHmrGDTihqDftG9ZXhm+3
5YkyVTPPxN1hLIUtU2FUcJuz6oYF0JZvxtpLWw9vHXZFL8T3yL933L/LS1MXCjQu
mVaOtvE0QmJEbA==
-----END CERTIFICATE-----
