Certificate:
    Data:
        Version: 3 (0x2)
        Serial Number: 268435705 (0x100000f9)
    Signature Algorithm: sha1WithRSAEncryption
        Issuer: C=DE, ST=Hessen, O=privacyidea, CN=CA001
        Validity
            Not Before: Sep 27 20:28:42 2016 GMT
            Not After : Sep 27 20:28:42 2017 GMT
        Subject: CN=selfservice,CN=user,O=realm1/emailAddress=meine
        Subject Public Key Info:
            Public Key Algorithm: rsaEncryption
                Public-Key: (2048 bit)
                Modulus:
                    00:cf:3c:d4:33:0e:12:c4:e6:da:cd:b6:56:a1:1c:
                    26:bb:26:1c:8a:4a:73:a8:58:8a:b6:1e:b3:8b:99:
                    d2:1d:07:c2:92:89:79:c0:69:d8:c8:df:28:61:98:
                    1e:b3:fe:ae:2b:bd:78:a9:f7:6e:47:dc:a3:a0:16:
                    8c:85:02:c1:4e:92:fd:72:6e:f0:c8:03:29:9b:b8:
                    00:6e:c0:83:95:c8:34:20:36:9c:b3:e5:e4:e6:76:
                    73:a3:1a:ad:40:96:e0:53:54:00:ec:76:79:9a:c6:
                    0d:7e:b6:bd:29:ec:83:f3:cb:89:a4:cb:6c:00:ba:
                    0c:c5:78:0f:ff:69:b8:94:f4:04:70:43:3f:d8:9e:
                    d7:a7:fb:5d:ce:75:8e:da:e7:c4:07:b1:9d:de:6f:
                    88:4b:b6:4d:9a:cf:f9:bc:fa:9f:cd:32:6d:f6:3a:
                    0b:0d:23:42:78:ec:97:42:bf:0e:4d:60:56:e1:d3:
                    02:f2:19:cb:84:57:90:e5:70:a1:a2:83:35:86:e2:
                    da:86:9f:f9:8a:c4:79:b3:52:28:da:cb:bb:34:ca:
                    d3:da:91:4a:cf:8d:76:a2:b2:6b:9b:f9:96:fd:09:
                    2a:da:11:23:4d:f0:cb:d6:b2:b1:0e:12:6c:9a:19:
                    65:98:87:ca:e4:ee:24:ce:44:ac:90:8f:9d:1b:c5:
                    2a:9d
                Exponent: 65537 (0x10001)
        X509v3 extensions:
            X509v3 Key Usage: 
                Digital Signature, Key Encipherment
            X509v3 Basic Constraints: 
                CA:FALSE
            Netscape Cert Type: 
                SSL Server
            Netscape Comment: 
                OpenSSL Generated Server Certificate
            X509v3 Subject Key Identifier: 
                4D:07:90:AD:FF:1D:0D:E7:1A:DD:D6:2E:FA:BA:34:CB:AA:1F:24:C6
            X509v3 Authority Key Identifier: 
                keyid:F4:A7:C0:CC:91:46:AF:64:F3:91:F2:27:F8:C8:B2:6F:8A:87:32:73
                DirName:/C=DE/ST=Hessen/O=privacyidea/CN=CA001
                serial:FB:C8:EB:AC:83:CD:12:07

            X509v3 Extended Key Usage: 
                TLS Web Server Authentication
    Signature Algorithm: sha1WithRSAEncryption
         46:08:d9:22:c8:53:f9:a9:f8:47:69:ca:55:4d:94:cf:36:1b:
         1c:70:73:ae:ae:11:aa:39:4f:db:8a:88:cd:22:9d:0b:59:d5:
         72:4f:1b:2b:9e:1a:91:d4:c5:8a:22:6f:37:7d:6a:68:aa:e3:
         02:d4:fa:13:aa:7c:29:9d:a8:a2:b8:cb:a8:f1:9d:89:50:c2:
         ac:30:66:41:23:8b:36:c5:59:7d:50:d0:0d:a0:91:b9:6a:89:
         8e:0e:e1:73:ac:1a:01:8e:91:97:ef:06:9d:6a:96:0e:31:e7:
         72:93:59:72:5e:0c:5d:5b:c6:22:83:60:3e:21:21:26:5d:b5:
         5e:4c:ec:d7:f3:58:ca:c4:d6:52:02:d4:3c:44:2a:00:d0:1a:
         dc:c6:5b:86:b4:86:a1:f2:aa:94:75:26:71:7e:04:ff:86:58:
         9c:1d:fc:01:1b:69:ad:7c:86:cf:80:4a:dd:37:7d:00:34:a0:
         20:5d:d4:fa:e5:df:0e:f3:22:dc:8f:50:0b:d0:7c:f2:f6:45:
         a1:ca:d7:0b:a5:14:94:1f:96:80:de:bc:ca:ce:e4:93:d3:e2:
         3d:04:2f:b1:8b:6d:5a:06:0c:98:74:cb:36:a3:15:d7:56:7f:
         30:a8:e3:0a:23:b0:cb:f0:2a:1b:05:6d:2c:3f:95:b1:84:fc:
         2c:d4:2e:29
-----BEGIN CERTIFICATE-----
MIIEDzCCAvegAwIBAgIEEAAA+TANBgkqhkiG9w0BAQUFADBEMQswCQYDVQQGEwJE
RTEPMA0GA1UECAwGSGVzc2VuMRQwEgYDVQQKDAtwcml2YWN5aWRlYTEOMAwGA1UE
AwwFQ0EwMDEwHhcNMTYwOTI3MjAyODQyWhcNMTcwOTI3MjAyODQyWjA9MSUwIwYD
VQQDDBxzZWxmc2VydmljZSxDTj11c2VyLE89cmVhbG0xMRQwEgYJKoZIhvcNAQkB
FgVtZWluZTCCASIwDQYJKoZIhvcNAQEBBQADggEPADCCAQoCggEBAM881DMOEsTm
2s22VqEcJrsmHIpKc6hYirYes4uZ0h0HwpKJecBp2MjfKGGYHrP+riu9eKn3bkfc
o6AWjIUCwU6S/XJu8MgDKZu4AG7Ag5XINCA2nLPl5OZ2c6MarUCW4FNUAOx2eZrG
DX62vSnsg/PLiaTLbAC6DMV4D/9puJT0BHBDP9ie16f7Xc51jtrnxAexnd5viEu2
TZrP+bz6n80ybfY6Cw0jQnjsl0K/Dk1gVuHTAvIZy4RXkOVwoaKDNYbi2oaf+YrE
ebNSKNrLuzTK09qRSs+NdqKya5v5lv0JKtoRI03wy9aysQ4SbJoZZZiHyuTuJM5E
rJCPnRvFKp0CAwEAAaOCAQ4wggEKMAsGA1UdDwQEAwIFoDAJBgNVHRMEAjAAMBEG
CWCGSAGG+EIBAQQEAwIGQDAzBglghkgBhvhCAQ0EJhYkT3BlblNTTCBHZW5lcmF0
ZWQgU2VydmVyIENlcnRpZmljYXRlMB0GA1UdDgQWBBRNB5Ct/x0N5xrd1i76ujTL
qh8kxjB0BgNVHSMEbTBrgBT0p8DMkUavZPOR8if4yLJviocyc6FIpEYwRDELMAkG
A1UEBhMCREUxDzANBgNVBAgMBkhlc3NlbjEUMBIGA1UECgwLcHJpdmFjeWlkZWEx
DjAMBgNVBAMMBUNBMDAxggkA+8jrrIPNEgcwEwYDVR0lBAwwCgYIKwYBBQUHAwEw
DQYJKoZIhvcNAQEFBQADggEBAEYI2SLIU/mp+EdpylVNlM82Gxxwc66uEao5T9uK
iM0inQtZ1XJPGyueGpHUxYoibzd9amiq4wLU+hOqfCmdqKK4y6jxnYlQwqwwZkEj
izbFWX1Q0A2gkblqiY4O4XOsGgGOkZfvBp1qlg4x53KTWXJeDF1bxiKDYD4hISZd
tV5M7NfzWMrE1lIC1DxEKgDQGtzGW4a0hqHyqpR1JnF+BP+GWJwd/AEbaa18hs+A
St03fQA0oCBd1Prl3w7zItyPUAvQfPL2RaHK1wulFJQfloDevMrO5JPT4j0EL7GL
bVoGDJh0yzajFddWfzCo4wojsMvwKhsFbSw/lbGE/CzULik=
-----END CERTIFICATE-----
