Certificate:
    Data:
        Version: 3 (0x2)
        Serial Number: 268435700 (0x100000f4)
    Signature Algorithm: sha1WithRSAEncryption
        Issuer: C=DE, ST=Hessen, O=privacyidea, CN=CA001
        Validity
            Not Before: Sep 27 20:17:05 2016 GMT
            Not After : Sep 27 20:17:05 2017 GMT
        Subject: C=DE, ST=Hessen, O=privacyidea, CN=requester.localdomain
        Subject Public Key Info:
            Public Key Algorithm: rsaEncryption
                Public-Key: (2048 bit)
                Modulus:
                    00:cd:be:14:4f:fa:ce:01:3f:42:22:1b:1d:9c:af:
                    dd:92:d2:7f:db:6c:b7:3e:39:43:43:6b:13:03:f1:
                    05:f4:07:74:bc:76:69:28:0b:af:19:8e:d7:fc:e3:
                    cd:c6:58:f2:ca:7f:08:6d:53:fc:07:02:44:24:c6:
                    b4:34:4c:8c:04:fe:33:0e:40:e2:20:ba:02:73:5a:
                    f7:f5:4f:63:6e:cc:c6:b6:df:54:1d:37:39:7d:51:
                    36:26:5f:bd:dc:3f:a8:8b:6b:a2:ae:b6:9d:d6:21:
                    e7:df:41:b8:7a:28:2a:68:48:ca:a8:2d:ed:e1:e9:
                    46:5e:5a:72:6d:b4:84:38:87:91:fd:94:11:0b:28:
                    84:c6:c2:2f:2a:fb:01:f9:36:7a:09:75:d1:33:88:
                    3c:73:41:5b:c8:bf:94:89:70:a1:f0:c0:b9:2e:50:
                    53:1e:b1:17:64:69:f4:2d:81:e0:a9:0d:0e:32:e9:
                    ba:55:8a:85:f1:1b:6f:49:79:b4:7f:88:c3:0d:3e:
                    54:88:9b:3d:1f:38:8c:04:f3:ee:6a:63:2b:f5:c6:
                    db:b4:83:aa:c4:78:41:3a:7d:4b:e1:c8:3e:71:ca:
                    1b:61:59:ea:c6:c4:ca:32:5e:c9:e9:bf:12:29:e6:
                    c6:c3:63:fe:a0:55:da:7a:f1:60:98:4d:26:ed:fa:
                    70:2d
                Exponent: 65537 (0x10001)
        X509v3 extensions:
            X509v3 Key Usage: 
                Digital Signature, Key Encipherment
            X509v3 Basic Constraints: 
                CA:FALSE
            Netscape Cert Type: 
                SSL Server
            Netscape Comment: 
                OpenSSL Generated Server Certificate
            X509v3 Subject Key Identifier: 
                53:3F:ED:5D:09:07:B3:65:7B:AB:45:C9:24:5B:09:77:80:0A:96:ED
            X509v3 Authority Key Identifier: 
                keyid:F4:A7:C0:CC:91:46:AF:64:F3:91:F2:27:F8:C8:B2:6F:8A:87:32:73
                DirName:/C=DE/ST=Hessen/O=privacyidea/CN=CA001
                serial:FB:C8:EB:AC:83:CD:12:07

            X509v3 Extended Key Usage: 
                TLS Web Server Authentication
    Signature Algorithm: sha1WithRSAEncryption
         a1:29:0c:02:74:fe:04:4f:9a:a4:67:2d:76:8e:21:3d:6c:45:
         1c:47:97:01:4f:4e:a6:8e:d1:ac:c7:c0:41:8f:c9:c2:61:e6:
         f7:bb:50:ac:bd:57:0e:8a:ef:64:f7:30:83:c5:dd:07:e0:a5:
         fa:89:79:78:c6:85:7b:a7:63:90:be:94:81:02:1c:f9:ca:e6:
         b4:32:c8:ec:c0:82:08:6a:f1:cd:56:10:c5:9c:d9:c0:54:87:
         79:d9:6d:e8:f6:12:bf:d5:9e:d3:db:35:d2:f1:e5:c9:73:0c:
         0b:49:a7:95:be:cc:0f:87:0a:e1:a1:4a:90:45:31:9b:74:e7:
         bc:c8:00:eb:52:2a:f0:59:31:9b:a3:1a:4e:fb:9b:c4:dc:41:
         5a:dc:a0:fb:94:e0:49:11:38:2f:97:6e:82:d2:f4:44:e8:f2:
         9d:ef:97:cd:30:da:43:0e:30:e8:87:fb:79:ba:10:35:c9:d5:
         9a:c4:d7:b6:14:ad:b8:d2:81:a8:78:c1:7d:c9:7e:ec:9b:21:
         ed:8d:2d:d4:48:df:36:9e:d9:53:79:f7:c7:75:fe:4a:f1:89:
         25:2d:89:27:1d:d1:f2:3f:bc:c0:ec:db:32:9c:18:7a:cc:f1:
         e5:54:14:6f:5c:70:51:2f:d0:8e:d8:ab:09:af:f8:af:4b:76:
         60:a0:d8:54
-----BEGIN CERTIFICATE-----
MIIEJjCCAw6gAwIBAgIEEAAA9DANBgkqhkiG9w0BAQUFADBEMQswCQYDVQQGEwJE
RTEPMA0GA1UECAwGSGVzc2VuMRQwEgYDVQQKDAtwcml2YWN5aWRlYTEOMAwGA1UE
AwwFQ0EwMDEwHhcNMTYwOTI3MjAxNzA1WhcNMTcwOTI3MjAxNzA1WjBUMQswCQYD
VQQGEwJERTEPMA0GA1UECAwGSGVzc2VuMRQwEgYDVQQKDAtwcml2YWN5aWRlYTEe
MBwGA1UEAwwVcmVxdWVzdGVyLmxvY2FsZG9tYWluMIIBIjANBgkqhkiG9w0BAQEF
AAOCAQ8AMIIBCgKCAQEAzb4UT/rOAT9CIhsdnK/dktJ/22y3PjlDQ2sTA/EF9Ad0
vHZpKAuvGY7X/OPNxljyyn8IbVP8BwJEJMa0NEyMBP4zDkDiILoCc1r39U9jbszG
tt9UHTc5fVE2Jl+93D+oi2uirrad1iHn30G4eigqaEjKqC3t4elGXlpybbSEOIeR
/ZQRCyiExsIvKvsB+TZ6CXXRM4g8c0FbyL+UiXCh8MC5LlBTHrEXZGn0LYHgqQ0O
Mum6VYqF8RtvSXm0f4jDDT5UiJs9HziMBPPuamMr9cbbtIOqxHhBOn1L4cg+ccob
YVnqxsTKMl7J6b8SKebGw2P+oFXaevFgmE0m7fpwLQIDAQABo4IBDjCCAQowCwYD
VR0PBAQDAgWgMAkGA1UdEwQCMAAwEQYJYIZIAYb4QgEBBAQDAgZAMDMGCWCGSAGG
+EIBDQQmFiRPcGVuU1NMIEdlbmVyYXRlZCBTZXJ2ZXIgQ2VydGlmaWNhdGUwHQYD
VR0OBBYEFFM/7V0JB7Nle6tFySRbCXeACpbtMHQGA1UdIwRtMGuAFPSnwMyRRq9k
85HyJ/jIsm+KhzJzoUikRjBEMQswCQYDVQQGEwJERTEPMA0GA1UECAwGSGVzc2Vu
MRQwEgYDVQQKDAtwcml2YWN5aWRlYTEOMAwGA1UEAwwFQ0EwMDGCCQD7yOusg80S
BzATBgNVHSUEDDAKBggrBgEFBQcDATANBgkqhkiG9w0BAQUFAAOCAQEAoSkMAnT+
BE+apGctdo4hPWxFHEeXAU9Opo7RrMfAQY/JwmHm97tQrL1XDorvZPcwg8XdB+Cl
+ol5eMaFe6djkL6UgQIc+crmtDLI7MCCCGrxzVYQxZzZwFSHedlt6PYSv9We09s1
0vHlyXMMC0mnlb7MD4cK4aFKkEUxm3TnvMgA61Iq8Fkxm6MaTvubxNxBWtyg+5Tg
SRE4L5dugtL0ROjyne+XzTDaQw4w6If7eboQNcnVmsTXthStuNKBqHjBfcl+7Jsh
7Y0t1EjfNp7ZU3n3x3X+SvGJJS2JJx3R8j+8wOzbMpwYeszx5VQUb1xwUS/Qjtir
Ca/4r0t2YKDYVA==
-----END CERTIFICATE-----
