Certificate:
    Data:
        Version: 3 (0x2)
        Serial Number: 268435681 (0x100000e1)
    Signature Algorithm: sha1WithRSAEncryption
        Issuer: C=DE, ST=Hessen, O=privacyidea, CN=CA001
        Validity
            Not Before: Sep 30 16:48:06 2016 GMT
            Not After : Sep 30 16:48:06 2017 GMT
        Subject: C=DE, ST=Hessen, O=privacyidea, CN=requester.localdomain
        Subject Public Key Info:
            Public Key Algorithm: rsaEncryption
                Public-Key: (2048 bit)
                Modulus:
                    00:cd:be:14:4f:fa:ce:01:3f:42:22:1b:1d:9c:af:
                    dd:92:d2:7f:db:6c:b7:3e:39:43:43:6b:13:03:f1:
                    05:f4:07:74:bc:76:69:28:0b:af:19:8e:d7:fc:e3:
                    cd:c6:58:f2:ca:7f:08:6d:53:fc:07:02:44:24:c6:
                    b4:34:4c:8c:04:fe:33:0e:40:e2:20:ba:02:73:5a:
                    f7:f5:4f:63:6e:cc:c6:b6:df:54:1d:37:39:7d:51:
                    36:26:5f:bd:dc:3f:a8:8b:6b:a2:ae:b6:9d:d6:21:
                    e7:df:41:b8:7a:28:2a:68:48:ca:a8:2d:ed:e1:e9:
                    46:5e:5a:72:6d:b4:84:38:87:91:fd:94:11:0b:28:
                    84:c6:c2:2f:2a:fb:01:f9:36:7a:09:75:d1:33:88:
                    3c:73:41:5b:c8:bf:94:89:70:a1:f0:c0:b9:2e:50:
                    53:1e:b1:17:64:69:f4:2d:81:e0:a9:0d:0e:32:e9:
                    ba:55:8a:85:f1:1b:6f:49:79:b4:7f:88:c3:0d:3e:
                    54:88:9b:3d:1f:38:8c:04:f3:ee:6a:63:2b:f5:c6:
                    db:b4:83:aa:c4:78:41:3a:7d:4b:e1:c8:3e:71:ca:
                    1b:61:59:ea:c6:c4:ca:32:5e:c9:e9:bf:12:29:e6:
                    c6:c3:63:fe:a0:55:da:7a:f1:60:98:4d:26:ed:fa:
                    70:2d
                Exponent: 65537 (0x10001)
        X509v3 extensions:
            X509v3 Key Usage: 
                Digital Signature, Key Encipherment
            X509v3 Basic Constraints: 
                CA:FALSE
            Netscape Cert Type: 
                SSL Server
            Netscape Comment: 
                OpenSSL Generated Server Certificate
            X509v3 Subject Key Identifier: 
                53:3F:ED:5D:09:07:B3:65:7B:AB:45:C9:24:5B:09:77:80:0A:96:ED
            X509v3 Authority Key Identifier: 
                keyid:F4:A7:C0:CC:91:46:AF:64:F3:91:F2:27:F8:C8:B2:6F:8A:87:32:73
                DirName:/C=DE/ST=Hessen/O=privacyidea/CN=CA001
                serial:FB:C8:EB:AC:83:CD:12:07

            X509v3 Extended Key Usage: 
                TLS Web Server Authentication
    Signature Algorithm: sha1WithRSAEncryption
         08:7c:90:7c:04:f7:db:5f:71:3b:40:84:c7:f9:ad:ed:d6:a4:
         63:e6:14:5d:ed:9a:41:b2:58:79:ed:04:90:93:59:88:ef:6c:
         78:45:bb:d0:f1:b1:9a:c7:f4:c3:4d:9e:7d:b2:e8:85:8c:1f:
         77:0e:8a:c9:bb:61:69:37:0f:14:ee:5e:52:23:85:95:dd:09:
         c5:83:f1:f2:b5:83:e0:32:f3:17:d7:fd:7c:6a:e4:9c:b5:76:
         28:39:43:cb:74:96:01:49:73:aa:09:88:86:1d:73:0c:3b:07:
         a9:1c:b4:cb:54:0b:0b:3a:b7:98:be:88:83:6a:05:86:32:b5:
         dd:58:1b:c8:87:0c:2c:f9:ae:5d:bb:48:1c:6e:9e:d3:e6:05:
         1f:4c:a6:0e:fd:af:4e:5e:11:20:3a:3c:fc:85:cb:07:68:b6:
         68:c6:30:fd:96:5e:c6:69:71:e9:5c:7a:3c:5d:81:84:a2:92:
         d0:06:f6:b0:2a:0e:18:a3:30:f9:65:51:37:99:65:bb:af:18:
         83:d7:57:54:16:56:cb:83:7b:3f:e7:08:f0:33:38:6b:29:fa:
         6d:91:10:e7:19:d7:1e:92:52:ef:00:3d:06:64:80:f0:69:85:
         7f:f7:23:99:f1:52:3c:5d:2e:55:0a:9c:c5:dd:ea:9f:9b:a3:
         f9:de:72:a7
-----BEGIN CERTIFICATE-----
MIIEJjCCAw6gAwIBAgIEEAAA4TANBgkqhkiG9w0BAQUFADBEMQswCQYDVQQGEwJE
RTEPMA0GA1UECAwGSGVzc2VuMRQwEgYDVQQKDAtwcml2YWN5aWRlYTEOMAwGA1UE
AwwFQ0EwMDEwHhcNMTYwOTMwMTY0ODA2WhcNMTcwOTMwMTY0ODA2WjBUMQswCQYD
VQQGEwJERTEPMA0GA1UECAwGSGVzc2VuMRQwEgYDVQQKDAtwcml2YWN5aWRlYTEe
MBwGA1UEAwwVcmVxdWVzdGVyLmxvY2FsZG9tYWluMIIBIjANBgkqhkiG9w0BAQEF
AAOCAQ8AMIIBCgKCAQEAzb4UT/rOAT9CIhsdnK/dktJ/22y3PjlDQ2sTA/EF9Ad0
vHZpKAuvGY7X/OPNxljyyn8IbVP8BwJEJMa0NEyMBP4zDkDiILoCc1r39U9jbszG
tt9UHTc5fVE2Jl+93D+oi2uirrad1iHn30G4eigqaEjKqC3t4elGXlpybbSEOIeR
/ZQRCyiExsIvKvsB+TZ6CXXRM4g8c0FbyL+UiXCh8MC5LlBTHrEXZGn0LYHgqQ0O
Mum6VYqF8RtvSXm0f4jDDT5UiJs9HziMBPPuamMr9cbbtIOqxHhBOn1L4cg+ccob
YVnqxsTKMl7J6b8SKebGw2P+oFXaevFgmE0m7fpwLQIDAQABo4IBDjCCAQowCwYD
VR0PBAQDAgWgMAkGA1UdEwQCMAAwEQYJYIZIAYb4QgEBBAQDAgZAMDMGCWCGSAGG
+EIBDQQmFiRPcGVuU1NMIEdlbmVyYXRlZCBTZXJ2ZXIgQ2VydGlmaWNhdGUwHQYD
VR0OBBYEFFM/7V0JB7Nle6tFySRbCXeACpbtMHQGA1UdIwRtMGuAFPSnwMyRRq9k
85HyJ/jIsm+KhzJzoUikRjBEMQswCQYDVQQGEwJERTEPMA0GA1UECAwGSGVzc2Vu
MRQwEgYDVQQKDAtwcml2YWN5aWRlYTEOMAwGA1UEAwwFQ0EwMDGCCQD7yOusg80S
BzATBgNVHSUEDDAKBggrBgEFBQcDATANBgkqhkiG9w0BAQUFAAOCAQEACHyQfAT3
219xO0CEx/mt7dakY+YUXe2aQbJYee0EkJNZiO9seEW70PGxmsf0w02efbLohYwf
dw6KybthaTcPFO5eUiOFld0JxYPx8rWD4DLzF9f9fGrknLV2KDlDy3SWAUlzqgmI
hh1zDDsHqRy0y1QLCzq3mL6Ig2oFhjK13VgbyIcMLPmuXbtIHG6e0+YFH0ymDv2v
Tl4RIDo8/IXLB2i2aMYw/ZZexmlx6Vx6PF2BhKKS0Ab2sCoOGKMw+WVRN5llu68Y
g9dXVBZWy4N7P+cI8DM4ayn6bZEQ5xnXHpJS7wA9BmSA8GmFf/cjmfFSPF0uVQqc
xd3qn5uj+d5ypw==
-----END CERTIFICATE-----
