Certificate:
    Data:
        Version: 3 (0x2)
        Serial Number: 268435665 (0x100000d1)
    Signature Algorithm: sha1WithRSAEncryption
        Issuer: C=DE, ST=Hessen, O=privacyidea, CN=CA001
        Validity
            Not Before: Dec 19 12:46:49 2016 GMT
            Not After : Dec 19 12:46:49 2017 GMT
        Subject: C=DE, ST=Hessen, O=privacyidea, CN=usercert
        Subject Public Key Info:
            Public Key Algorithm: rsaEncryption
                Public-Key: (2048 bit)
                Modulus:
                    00:dc:2f:d1:5f:29:97:d4:7c:c3:53:c8:30:bd:4b:
                    67:70:2c:24:6b:b8:5e:eb:21:7a:48:12:56:7c:81:
                    5c:48:75:b6:68:eb:f6:f2:98:4e:50:51:d1:7f:6c:
                    73:f3:0a:a7:ae:be:48:5e:e5:d6:e1:d9:2a:7c:32:
                    6e:4e:fd:08:f6:5a:54:49:23:73:c3:b9:07:18:d1:
                    ef:b3:ac:f8:8a:dc:94:96:a4:90:3a:8e:74:df:e6:
                    0d:37:1b:bd:5b:b7:25:1a:56:39:da:6f:91:aa:5e:
                    1c:74:f3:f9:7c:14:01:83:12:65:76:c7:bb:fe:36:
                    5b:95:e9:72:65:83:ed:3e:98:30:71:fa:87:dd:a3:
                    36:5a:30:03:2e:26:e0:61:d1:bf:02:3f:b6:06:1f:
                    4a:89:28:1c:5c:a2:ff:4e:be:94:e6:8c:e0:da:82:
                    f1:9d:29:32:48:30:73:b4:04:f6:42:1e:be:f7:e2:
                    32:32:27:3c:9d:89:2f:70:3e:85:9a:6f:5c:c5:09:
                    c0:8c:32:2f:72:22:c9:d2:95:1f:b6:ac:72:60:72:
                    b7:82:4d:6b:ce:5b:e3:00:d0:d2:2f:58:c6:e0:10:
                    e5:51:ca:4d:3b:2e:e6:7e:ab:84:d6:56:f1:93:35:
                    a0:93:64:26:81:75:2f:91:b5:16:06:38:0b:db:cc:
                    2d:07
                Exponent: 65537 (0x10001)
        X509v3 extensions:
            X509v3 Key Usage: 
                Digital Signature, Key Encipherment
            X509v3 Basic Constraints: 
                CA:FALSE
            Netscape Cert Type: 
                SSL Server
            Netscape Comment: 
                OpenSSL Generated Server Certificate
            X509v3 Subject Key Identifier: 
                FC:14:D1:F0:4B:8D:00:90:F2:F5:B8:71:9E:4E:97:C3:92:54:AD:0B
            X509v3 Authority Key Identifier: 
                keyid:F4:A7:C0:CC:91:46:AF:64:F3:91:F2:27:F8:C8:B2:6F:8A:87:32:73
                DirName:/C=DE/ST=Hessen/O=privacyidea/CN=CA001
                serial:FB:C8:EB:AC:83:CD:12:07

            X509v3 Extended Key Usage: 
                TLS Web Server Authentication
    Signature Algorithm: sha1WithRSAEncryption
         ab:a7:d7:ac:ba:1a:ee:20:c6:f9:6e:e1:4e:97:a4:b6:14:82:
         99:83:a3:33:01:21:f7:79:66:22:17:cf:66:c5:e9:fb:ae:f5:
         7d:7f:6e:9c:2d:ec:16:08:4a:2d:0a:be:e3:c0:0b:0a:9d:03:
         4d:bc:ed:4d:9d:c6:ec:f3:b7:8d:fd:86:6a:45:a5:d9:3c:66:
         47:59:37:e7:1d:10:f7:ac:32:10:78:65:fb:fd:82:32:fe:76:
         f1:bc:e7:f9:4c:fd:99:17:aa:df:73:cc:f0:0d:29:b7:51:e0:
         fc:ca:9f:f0:bf:ce:e6:0f:e5:1e:0b:2c:69:f3:c6:a4:00:30:
         19:84:a1:3e:57:ad:52:0d:63:e0:34:14:3d:cb:4f:31:b7:67:
         96:c0:31:fd:d8:02:4d:98:f0:77:33:c9:eb:8f:0a:71:3f:5b:
         58:93:78:05:54:d6:6e:26:99:a3:92:e2:18:c4:b6:61:e7:4f:
         9a:a9:77:32:dd:35:07:a4:29:20:43:e2:8b:30:70:96:2c:de:
         1f:b4:85:ef:d0:b0:40:23:0e:b8:d0:46:09:fc:e8:37:ea:8a:
         4a:3b:34:f2:28:c4:a1:20:ab:d7:54:60:39:4b:ce:14:0c:8c:
         21:0f:62:c2:17:7a:b2:00:ed:9d:35:02:8c:0b:a8:28:f6:47:
         25:54:01:ec
-----BEGIN CERTIFICATE-----
MIIEGTCCAwGgAwIBAgIEEAAA0TANBgkqhkiG9w0BAQUFADBEMQswCQYDVQQGEwJE
RTEPMA0GA1UECAwGSGVzc2VuMRQwEgYDVQQKDAtwcml2YWN5aWRlYTEOMAwGA1UE
AwwFQ0EwMDEwHhcNMTYxMjE5MTI0NjQ5WhcNMTcxMjE5MTI0NjQ5WjBHMQswCQYD
VQQGEwJERTEPMA0GA1UECAwGSGVzc2VuMRQwEgYDVQQKDAtwcml2YWN5aWRlYTER
MA8GA1UEAwwIdXNlcmNlcnQwggEiMA0GCSqGSIb3DQEBAQUAA4IBDwAwggEKAoIB
AQDcL9FfKZfUfMNTyDC9S2dwLCRruF7rIXpIElZ8gVxIdbZo6/bymE5QUdF/bHPz
Cqeuvkhe5dbh2Sp8Mm5O/Qj2WlRJI3PDuQcY0e+zrPiK3JSWpJA6jnTf5g03G71b
tyUaVjnab5GqXhx08/l8FAGDEmV2x7v+NluV6XJlg+0+mDBx+ofdozZaMAMuJuBh
0b8CP7YGH0qJKBxcov9OvpTmjODagvGdKTJIMHO0BPZCHr734jIyJzydiS9wPoWa
b1zFCcCMMi9yIsnSlR+2rHJgcreCTWvOW+MA0NIvWMbgEOVRyk07LuZ+q4TWVvGT
NaCTZCaBdS+RtRYGOAvbzC0HAgMBAAGjggEOMIIBCjALBgNVHQ8EBAMCBaAwCQYD
VR0TBAIwADARBglghkgBhvhCAQEEBAMCBkAwMwYJYIZIAYb4QgENBCYWJE9wZW5T
U0wgR2VuZXJhdGVkIFNlcnZlciBDZXJ0aWZpY2F0ZTAdBgNVHQ4EFgQU/BTR8EuN
AJDy9bhxnk6Xw5JUrQswdAYDVR0jBG0wa4AU9KfAzJFGr2TzkfIn+Miyb4qHMnOh
SKRGMEQxCzAJBgNVBAYTAkRFMQ8wDQYDVQQIDAZIZXNzZW4xFDASBgNVBAoMC3By
aXZhY3lpZGVhMQ4wDAYDVQQDDAVDQTAwMYIJAPvI66yDzRIHMBMGA1UdJQQMMAoG
CCsGAQUFBwMBMA0GCSqGSIb3DQEBBQUAA4IBAQCrp9esuhruIMb5buFOl6S2FIKZ
g6MzASH3eWYiF89mxen7rvV9f26cLewWCEotCr7jwAsKnQNNvO1Nncbs87eN/YZq
RaXZPGZHWTfnHRD3rDIQeGX7/YIy/nbxvOf5TP2ZF6rfc8zwDSm3UeD8yp/wv87m
D+UeCyxp88akADAZhKE+V61SDWPgNBQ9y08xt2eWwDH92AJNmPB3M8nrjwpxP1tY
k3gFVNZuJpmjkuIYxLZh50+aqXcy3TUHpCkgQ+KLMHCWLN4ftIXv0LBAIw640EYJ
/Og36opKOzTyKMShIKvXVGA5S84UDIwhD2LCF3qyAO2dNQKMC6go9kclVAHs
-----END CERTIFICATE-----
