Certificate:
    Data:
        Version: 3 (0x2)
        Serial Number: 268435679 (0x100000df)
    Signature Algorithm: sha1WithRSAEncryption
        Issuer: C=DE, ST=Hessen, O=privacyidea, CN=CA001
        Validity
            Not Before: Sep 30 16:40:25 2016 GMT
            Not After : Sep 30 16:40:25 2017 GMT
        Subject: OU=realm1, CN=cornelius/emailAddress=user@localhost.localdomain
        Subject Public Key Info:
            Public Key Algorithm: rsaEncryption
                Public-Key: (2048 bit)
                Modulus:
                    00:ac:d1:2d:3a:8f:14:be:1a:5c:82:b4:ba:7b:e5:
                    6e:aa:75:6b:84:77:63:46:c8:5e:c7:53:07:7d:f9:
                    08:85:de:33:47:94:59:dd:b5:e1:83:7a:cb:87:0a:
                    aa:42:28:cd:dc:5e:0d:42:00:d0:cd:84:2a:74:2b:
                    e6:88:ef:c9:57:51:82:d2:23:c4:d1:54:2c:61:22:
                    47:73:f9:ca:69:48:4e:de:90:a2:a3:5f:ba:83:f1:
                    9f:b6:cf:a9:55:3e:f3:a3:2b:5e:56:3a:2f:6b:8e:
                    23:02:dc:74:8c:99:20:f5:af:7a:4b:49:45:6c:c7:
                    81:f8:26:b1:4e:72:ce:5d:65:b8:70:e3:b2:f6:b6:
                    e9:b2:48:84:bc:2c:f1:92:f1:0b:be:54:0c:f0:22:
                    ce:93:09:e8:41:5f:60:5b:cb:44:d3:31:cb:79:c6:
                    e2:9d:8d:be:e6:ea:c1:e8:7a:8c:01:d8:26:3c:24:
                    7f:ed:7a:5b:a4:d3:7f:56:ff:be:af:b7:04:16:6a:
                    37:7d:3a:60:a7:80:a7:0e:7e:75:65:d6:28:44:45:
                    df:46:1c:1e:6a:54:9c:44:6d:60:da:d4:67:f4:55:
                    72:5e:60:0b:ad:4d:da:01:77:87:70:da:4b:f2:50:
                    0e:54:03:13:b1:36:34:d0:75:d1:4a:a9:42:ee:9c:
                    17:17
                Exponent: 65537 (0x10001)
        X509v3 extensions:
            X509v3 Key Usage: 
                Digital Signature, Key Encipherment
            X509v3 Basic Constraints: 
                CA:FALSE
            Netscape Cert Type: 
                SSL Server
            Netscape Comment: 
                OpenSSL Generated Server Certificate
            X509v3 Subject Key Identifier: 
                24:40:37:4F:95:C4:33:39:82:15:EC:5C:31:E1:15:C0:DA:26:C3:FD
            X509v3 Authority Key Identifier: 
                keyid:F4:A7:C0:CC:91:46:AF:64:F3:91:F2:27:F8:C8:B2:6F:8A:87:32:73
                DirName:/C=DE/ST=Hessen/O=privacyidea/CN=CA001
                serial:FB:C8:EB:AC:83:CD:12:07

            X509v3 Extended Key Usage: 
                TLS Web Server Authentication
    Signature Algorithm: sha1WithRSAEncryption
         56:8a:2a:b7:9a:06:53:cf:8d:1f:c5:af:f8:a3:5b:92:51:84:
         05:40:be:04:30:97:ba:c7:a1:a0:e9:df:e8:34:62:17:4e:5b:
         2f:44:0d:00:49:ac:61:73:3a:f5:98:be:47:d3:63:17:86:5b:
         98:03:2b:26:f3:20:88:ea:dd:27:7a:8a:3a:f1:e8:4c:65:cb:
         4e:bb:5b:cd:b8:13:88:0c:dd:ac:84:72:97:78:6c:aa:2b:36:
         27:ca:99:d5:91:44:9c:80:e9:73:8f:8a:a0:03:01:a9:a7:2e:
         31:92:10:ae:5e:5b:3c:23:f7:b6:5f:26:0f:0a:06:66:61:17:
         9f:72:4f:19:27:fb:74:2c:54:1a:c7:95:23:e3:50:f4:c3:bc:
         61:66:b8:5f:95:e4:ec:b8:af:f9:fd:46:40:30:a3:c5:46:eb:
         21:3f:ae:2d:e9:05:77:50:57:c2:0f:d0:b8:9a:48:31:e5:dd:
         7c:6d:91:5e:a4:8c:7a:37:f3:5a:a6:13:cb:33:c5:0a:08:fd:
         55:bd:a4:99:07:ec:b7:3f:4b:47:ee:28:bc:a4:d8:c7:f5:9d:
         5c:5e:a0:29:48:75:91:b2:51:bb:46:ad:e2:49:ee:b0:01:e4:
         0f:59:6e:06:fa:29:60:c7:e0:2b:9c:27:b3:df:76:7c:7f:29:
         bd:d4:71:5b
-----BEGIN CERTIFICATE-----
MIIEIjCCAwqgAwIBAgIEEAAA3zANBgkqhkiG9w0BAQUFADBEMQswCQYDVQQGEwJE
RTEPMA0GA1UECAwGSGVzc2VuMRQwEgYDVQQKDAtwcml2YWN5aWRlYTEOMAwGA1UE
AwwFQ0EwMDEwHhcNMTYwOTMwMTY0MDI1WhcNMTcwOTMwMTY0MDI1WjBQMQ8wDQYD
VQQLDAZyZWFsbTExEjAQBgNVBAMMCWNvcm5lbGl1czEpMCcGCSqGSIb3DQEJARYa
dXNlckBsb2NhbGhvc3QubG9jYWxkb21haW4wggEiMA0GCSqGSIb3DQEBAQUAA4IB
DwAwggEKAoIBAQCs0S06jxS+GlyCtLp75W6qdWuEd2NGyF7HUwd9+QiF3jNHlFnd
teGDesuHCqpCKM3cXg1CANDNhCp0K+aI78lXUYLSI8TRVCxhIkdz+cppSE7ekKKj
X7qD8Z+2z6lVPvOjK15WOi9rjiMC3HSMmSD1r3pLSUVsx4H4JrFOcs5dZbhw47L2
tumySIS8LPGS8Qu+VAzwIs6TCehBX2Bby0TTMct5xuKdjb7m6sHoeowB2CY8JH/t
eluk039W/76vtwQWajd9OmCngKcOfnVl1ihERd9GHB5qVJxEbWDa1Gf0VXJeYAut
TdoBd4dw2kvyUA5UAxOxNjTQddFKqULunBcXAgMBAAGjggEOMIIBCjALBgNVHQ8E
BAMCBaAwCQYDVR0TBAIwADARBglghkgBhvhCAQEEBAMCBkAwMwYJYIZIAYb4QgEN
BCYWJE9wZW5TU0wgR2VuZXJhdGVkIFNlcnZlciBDZXJ0aWZpY2F0ZTAdBgNVHQ4E
FgQUJEA3T5XEMzmCFexcMeEVwNomw/0wdAYDVR0jBG0wa4AU9KfAzJFGr2TzkfIn
+Miyb4qHMnOhSKRGMEQxCzAJBgNVBAYTAkRFMQ8wDQYDVQQIDAZIZXNzZW4xFDAS
BgNVBAoMC3ByaXZhY3lpZGVhMQ4wDAYDVQQDDAVDQTAwMYIJAPvI66yDzRIHMBMG
A1UdJQQMMAoGCCsGAQUFBwMBMA0GCSqGSIb3DQEBBQUAA4IBAQBWiiq3mgZTz40f
xa/4o1uSUYQFQL4EMJe6x6Gg6d/oNGIXTlsvRA0ASaxhczr1mL5H02MXhluYAysm
8yCI6t0neoo68ehMZctOu1vNuBOIDN2shHKXeGyqKzYnypnVkUScgOlzj4qgAwGp
py4xkhCuXls8I/e2XyYPCgZmYRefck8ZJ/t0LFQax5Uj41D0w7xhZrhfleTsuK/5
/UZAMKPFRushP64t6QV3UFfCD9C4mkgx5d18bZFepIx6N/NaphPLM8UKCP1VvaSZ
B+y3P0tH7ii8pNjH9Z1cXqApSHWRslG7Rq3iSe6wAeQPWW4G+ilgx+ArnCez33Z8
fym91HFb
-----END CERTIFICATE-----
