Certificate:
    Data:
        Version: 3 (0x2)
        Serial Number: 268435669 (0x100000d5)
    Signature Algorithm: sha1WithRSAEncryption
        Issuer: C=DE, ST=Hessen, O=privacyidea, CN=CA001
        Validity
            Not Before: Dec  5 13:34:38 2016 GMT
            Not After : Dec  5 13:34:38 2017 GMT
        Subject: C=DE, ST=Hessen, O=privacyidea, CN=requester.localdomain
        Subject Public Key Info:
            Public Key Algorithm: rsaEncryption
                Public-Key: (2048 bit)
                Modulus:
                    00:cd:be:14:4f:fa:ce:01:3f:42:22:1b:1d:9c:af:
                    dd:92:d2:7f:db:6c:b7:3e:39:43:43:6b:13:03:f1:
                    05:f4:07:74:bc:76:69:28:0b:af:19:8e:d7:fc:e3:
                    cd:c6:58:f2:ca:7f:08:6d:53:fc:07:02:44:24:c6:
                    b4:34:4c:8c:04:fe:33:0e:40:e2:20:ba:02:73:5a:
                    f7:f5:4f:63:6e:cc:c6:b6:df:54:1d:37:39:7d:51:
                    36:26:5f:bd:dc:3f:a8:8b:6b:a2:ae:b6:9d:d6:21:
                    e7:df:41:b8:7a:28:2a:68:48:ca:a8:2d:ed:e1:e9:
                    46:5e:5a:72:6d:b4:84:38:87:91:fd:94:11:0b:28:
                    84:c6:c2:2f:2a:fb:01:f9:36:7a:09:75:d1:33:88:
                    3c:73:41:5b:c8:bf:94:89:70:a1:f0:c0:b9:2e:50:
                    53:1e:b1:17:64:69:f4:2d:81:e0:a9:0d:0e:32:e9:
                    ba:55:8a:85:f1:1b:6f:49:79:b4:7f:88:c3:0d:3e:
                    54:88:9b:3d:1f:38:8c:04:f3:ee:6a:63:2b:f5:c6:
                    db:b4:83:aa:c4:78:41:3a:7d:4b:e1:c8:3e:71:ca:
                    1b:61:59:ea:c6:c4:ca:32:5e:c9:e9:bf:12:29:e6:
                    c6:c3:63:fe:a0:55:da:7a:f1:60:98:4d:26:ed:fa:
                    70:2d
                Exponent: 65537 (0x10001)
        X509v3 extensions:
            X509v3 Key Usage: 
                Digital Signature, Key Encipherment
            X509v3 Basic Constraints: 
                CA:FALSE
            Netscape Cert Type: 
                SSL Server
            Netscape Comment: 
                OpenSSL Generated Server Certificate
            X509v3 Subject Key Identifier: 
                53:3F:ED:5D:09:07:B3:65:7B:AB:45:C9:24:5B:09:77:80:0A:96:ED
            X509v3 Authority Key Identifier: 
                keyid:F4:A7:C0:CC:91:46:AF:64:F3:91:F2:27:F8:C8:B2:6F:8A:87:32:73
                DirName:/C=DE/ST=Hessen/O=privacyidea/CN=CA001
                serial:FB:C8:EB:AC:83:CD:12:07

            X509v3 Extended Key Usage: 
                TLS Web Server Authentication
    Signature Algorithm: sha1WithRSAEncryption
         8c:41:67:a7:66:af:d9:fa:fd:ab:44:f7:2d:58:69:d5:87:1f:
         ec:94:f6:76:98:dc:4d:05:5a:fe:85:45:ac:50:4e:45:af:9d:
         07:26:d3:d9:e8:58:86:58:f3:ae:69:4b:7b:07:ec:04:54:2f:
         f2:df:e5:b3:e4:d5:66:e9:8f:73:11:af:85:18:9a:c0:28:28:
         d8:15:da:8a:da:62:58:0b:4a:af:be:85:e8:0d:19:c9:fd:29:
         98:a9:37:a7:c3:b2:c2:9d:7e:24:63:4c:40:a6:ef:42:b2:01:
         a6:c7:89:4d:0f:55:37:79:95:c4:c5:58:ee:79:23:b4:ee:17:
         44:42:69:bf:47:55:0b:f5:3e:54:7b:4b:79:1c:ee:a3:11:8d:
         ac:92:c4:e7:66:6a:de:d8:5c:f2:ce:2f:f8:8c:62:d0:42:64:
         63:9e:f8:b0:e6:79:9f:ee:71:63:26:34:5e:95:c4:87:77:13:
         17:58:0e:18:04:4c:78:1b:11:37:0b:37:71:63:4c:7f:0b:46:
         d9:60:5a:f1:89:f4:88:27:35:97:2c:52:cf:98:84:55:aa:93:
         7d:29:47:37:c7:c3:ed:39:4d:7b:04:a7:48:d9:53:11:94:63:
         b4:8b:ec:5a:cc:f7:e4:b5:f0:37:a2:21:87:40:39:3e:82:b7:
         92:55:08:68
-----BEGIN CERTIFICATE-----
MIIEJjCCAw6gAwIBAgIEEAAA1TANBgkqhkiG9w0BAQUFADBEMQswCQYDVQQGEwJE
RTEPMA0GA1UECAwGSGVzc2VuMRQwEgYDVQQKDAtwcml2YWN5aWRlYTEOMAwGA1UE
AwwFQ0EwMDEwHhcNMTYxMjA1MTMzNDM4WhcNMTcxMjA1MTMzNDM4WjBUMQswCQYD
VQQGEwJERTEPMA0GA1UECAwGSGVzc2VuMRQwEgYDVQQKDAtwcml2YWN5aWRlYTEe
MBwGA1UEAwwVcmVxdWVzdGVyLmxvY2FsZG9tYWluMIIBIjANBgkqhkiG9w0BAQEF
AAOCAQ8AMIIBCgKCAQEAzb4UT/rOAT9CIhsdnK/dktJ/22y3PjlDQ2sTA/EF9Ad0
vHZpKAuvGY7X/OPNxljyyn8IbVP8BwJEJMa0NEyMBP4zDkDiILoCc1r39U9jbszG
tt9UHTc5fVE2Jl+93D+oi2uirrad1iHn30G4eigqaEjKqC3t4elGXlpybbSEOIeR
/ZQRCyiExsIvKvsB+TZ6CXXRM4g8c0FbyL+UiXCh8MC5LlBTHrEXZGn0LYHgqQ0O
Mum6VYqF8RtvSXm0f4jDDT5UiJs9HziMBPPuamMr9cbbtIOqxHhBOn1L4cg+ccob
YVnqxsTKMl7J6b8SKebGw2P+oFXaevFgmE0m7fpwLQIDAQABo4IBDjCCAQowCwYD
VR0PBAQDAgWgMAkGA1UdEwQCMAAwEQYJYIZIAYb4QgEBBAQDAgZAMDMGCWCGSAGG
+EIBDQQmFiRPcGVuU1NMIEdlbmVyYXRlZCBTZXJ2ZXIgQ2VydGlmaWNhdGUwHQYD
VR0OBBYEFFM/7V0JB7Nle6tFySRbCXeACpbtMHQGA1UdIwRtMGuAFPSnwMyRRq9k
85HyJ/jIsm+KhzJzoUikRjBEMQswCQYDVQQGEwJERTEPMA0GA1UECAwGSGVzc2Vu
MRQwEgYDVQQKDAtwcml2YWN5aWRlYTEOMAwGA1UEAwwFQ0EwMDGCCQD7yOusg80S
BzATBgNVHSUEDDAKBggrBgEFBQcDATANBgkqhkiG9w0BAQUFAAOCAQEAjEFnp2av
2fr9q0T3LVhp1Ycf7JT2dpjcTQVa/oVFrFBORa+dBybT2ehYhljzrmlLewfsBFQv
8t/ls+TVZumPcxGvhRiawCgo2BXaitpiWAtKr76F6A0Zyf0pmKk3p8Oywp1+JGNM
QKbvQrIBpseJTQ9VN3mVxMVY7nkjtO4XREJpv0dVC/U+VHtLeRzuoxGNrJLE52Zq
3thc8s4v+Ixi0EJkY574sOZ5n+5xYyY0XpXEh3cTF1gOGARMeBsRNws3cWNMfwtG
2WBa8Yn0iCc1lyxSz5iEVaqTfSlHN8fD7TlNewSnSNlTEZRjtIvsWsz35LXwN6Ih
h0A5PoK3klUIaA==
-----END CERTIFICATE-----
