Certificate:
    Data:
        Version: 3 (0x2)
        Serial Number: 268435662 (0x100000ce)
    Signature Algorithm: sha1WithRSAEncryption
        Issuer: C=DE, ST=Hessen, O=privacyidea, CN=CA001
        Validity
            Not Before: Dec 22 17:53:31 2016 GMT
            Not After : Dec 22 17:53:31 2017 GMT
        Subject: OU=realm1, CN=cornelius/emailAddress=user@localhost.localdomain
        Subject Public Key Info:
            Public Key Algorithm: rsaEncryption
                Public-Key: (2048 bit)
                Modulus:
                    00:d5:76:66:60:36:a4:b2:09:4d:e7:a4:df:41:48:
                    32:ea:bd:dd:ae:7c:6a:1e:1d:03:8a:26:58:56:b5:
                    e6:4c:63:69:3d:69:7a:ca:98:8a:b0:b9:d7:e2:6b:
                    df:bb:d2:f6:23:61:0c:ac:27:65:0b:3d:81:26:01:
                    53:43:ae:cc:c2:da:59:e5:93:c3:a4:2c:1d:a0:02:
                    fd:78:93:c7:c8:75:f3:cb:fc:0e:d2:62:db:06:e4:
                    05:82:80:66:6a:87:89:97:a7:2a:c9:e0:cd:d7:bf:
                    0f:81:28:2a:79:b2:15:85:24:79:70:9c:a4:d1:0f:
                    74:40:1c:95:74:6b:26:e4:29:1d:9e:8b:6d:79:55:
                    df:4a:b3:f4:b7:5a:32:4d:dd:16:54:e3:4d:0a:d0:
                    d7:a0:0a:2e:19:6f:25:c3:73:55:1e:bc:ce:79:37:
                    ac:b7:5a:a8:37:fa:a4:5e:85:86:0d:3e:c7:3d:f3:
                    5a:32:df:f3:db:cb:cc:60:8e:97:5e:63:dd:cc:b5:
                    32:3f:73:5e:d0:ef:53:81:05:aa:c7:ec:cc:b5:64:
                    3d:75:aa:5c:98:f8:3e:41:6e:2c:19:d2:8d:44:c5:
                    a9:cb:4d:b1:87:15:2e:c6:26:32:7c:d6:ba:84:d8:
                    b7:1a:c1:3d:d5:94:28:76:10:b2:65:86:54:56:de:
                    a8:1b
                Exponent: 65537 (0x10001)
        X509v3 extensions:
            X509v3 Key Usage: 
                Digital Signature, Key Encipherment
            X509v3 Basic Constraints: 
                CA:FALSE
            Netscape Cert Type: 
                SSL Server
            Netscape Comment: 
                OpenSSL Generated Server Certificate
            X509v3 Subject Key Identifier: 
                3F:C7:1C:A4:58:4F:FC:A8:7F:E2:D6:8A:4C:9E:A1:62:3C:4E:BB:39
            X509v3 Authority Key Identifier: 
                keyid:F4:A7:C0:CC:91:46:AF:64:F3:91:F2:27:F8:C8:B2:6F:8A:87:32:73
                DirName:/C=DE/ST=Hessen/O=privacyidea/CN=CA001
                serial:FB:C8:EB:AC:83:CD:12:07

            X509v3 Extended Key Usage: 
                TLS Web Server Authentication
    Signature Algorithm: sha1WithRSAEncryption
         7d:9a:d7:53:b4:a3:89:46:65:82:b3:2a:1c:3a:72:0a:0f:4c:
         6a:25:20:4d:94:92:ca:41:ce:31:88:7d:d4:1d:15:5a:0d:33:
         33:76:8d:95:29:c8:d2:7a:39:bf:9c:cb:47:74:7b:59:8e:4d:
         50:70:e2:01:3d:10:a1:1b:9a:b4:7c:2a:e7:b5:10:8a:a7:0c:
         c4:bb:04:3d:93:93:41:f1:d1:f3:ed:59:88:89:8c:71:1e:c6:
         23:62:d7:10:70:a6:ac:0f:bf:54:4d:3c:8d:37:fe:32:65:5d:
         d6:4d:cc:89:57:a3:93:bb:18:7a:f4:4d:ce:e0:86:4d:7f:04:
         9a:c6:2f:c1:da:7d:a4:74:3e:85:6e:1d:d9:9c:f8:1e:52:e5:
         41:b8:ac:5e:15:73:77:0a:1e:81:89:dc:1f:24:5b:12:75:cb:
         7e:53:56:08:cc:f9:0e:15:53:b5:46:6e:53:0d:70:16:8b:46:
         dd:f3:57:9d:4a:15:69:bc:12:45:ae:08:50:9e:c5:5c:04:0b:
         5f:dc:d1:dd:80:a7:ff:2f:10:da:aa:d1:63:3d:36:92:fd:52:
         21:17:f9:c6:87:16:d2:41:f5:c6:66:09:e4:1d:68:92:92:31:
         17:77:61:6a:27:cd:83:c0:73:62:81:39:6e:52:b5:ef:e3:35:
         e9:1d:83:e5
-----BEGIN CERTIFICATE-----
MIIEIjCCAwqgAwIBAgIEEAAAzjANBgkqhkiG9w0BAQUFADBEMQswCQYDVQQGEwJE
RTEPMA0GA1UECAwGSGVzc2VuMRQwEgYDVQQKDAtwcml2YWN5aWRlYTEOMAwGA1UE
AwwFQ0EwMDEwHhcNMTYxMjIyMTc1MzMxWhcNMTcxMjIyMTc1MzMxWjBQMQ8wDQYD
VQQLDAZyZWFsbTExEjAQBgNVBAMMCWNvcm5lbGl1czEpMCcGCSqGSIb3DQEJARYa
dXNlckBsb2NhbGhvc3QubG9jYWxkb21haW4wggEiMA0GCSqGSIb3DQEBAQUAA4IB
DwAwggEKAoIBAQDVdmZgNqSyCU3npN9BSDLqvd2ufGoeHQOKJlhWteZMY2k9aXrK
mIqwudfia9+70vYjYQysJ2ULPYEmAVNDrszC2lnlk8OkLB2gAv14k8fIdfPL/A7S
YtsG5AWCgGZqh4mXpyrJ4M3Xvw+BKCp5shWFJHlwnKTRD3RAHJV0aybkKR2ei215
Vd9Ks/S3WjJN3RZU400K0NegCi4ZbyXDc1UevM55N6y3Wqg3+qRehYYNPsc981oy
3/Pby8xgjpdeY93MtTI/c17Q71OBBarH7My1ZD11qlyY+D5BbiwZ0o1ExanLTbGH
FS7GJjJ81rqE2LcawT3VlCh2ELJlhlRW3qgbAgMBAAGjggEOMIIBCjALBgNVHQ8E
BAMCBaAwCQYDVR0TBAIwADARBglghkgBhvhCAQEEBAMCBkAwMwYJYIZIAYb4QgEN
BCYWJE9wZW5TU0wgR2VuZXJhdGVkIFNlcnZlciBDZXJ0aWZpY2F0ZTAdBgNVHQ4E
FgQUP8ccpFhP/Kh/4taKTJ6hYjxOuzkwdAYDVR0jBG0wa4AU9KfAzJFGr2TzkfIn
+Miyb4qHMnOhSKRGMEQxCzAJBgNVBAYTAkRFMQ8wDQYDVQQIDAZIZXNzZW4xFDAS
BgNVBAoMC3ByaXZhY3lpZGVhMQ4wDAYDVQQDDAVDQTAwMYIJAPvI66yDzRIHMBMG
A1UdJQQMMAoGCCsGAQUFBwMBMA0GCSqGSIb3DQEBBQUAA4IBAQB9mtdTtKOJRmWC
syocOnIKD0xqJSBNlJLKQc4xiH3UHRVaDTMzdo2VKcjSejm/nMtHdHtZjk1QcOIB
PRChG5q0fCrntRCKpwzEuwQ9k5NB8dHz7VmIiYxxHsYjYtcQcKasD79UTTyNN/4y
ZV3WTcyJV6OTuxh69E3O4IZNfwSaxi/B2n2kdD6Fbh3ZnPgeUuVBuKxeFXN3Ch6B
idwfJFsSdct+U1YIzPkOFVO1Rm5TDXAWi0bd81edShVpvBJFrghQnsVcBAtf3NHd
gKf/LxDaqtFjPTaS/VIhF/nGhxbSQfXGZgnkHWiSkjEXd2FqJ82DwHNigTluUrXv
4zXpHYPl
-----END CERTIFICATE-----
