Certificate:
    Data:
        Version: 3 (0x2)
        Serial Number: 268435676 (0x100000dc)
    Signature Algorithm: sha1WithRSAEncryption
        Issuer: C=DE, ST=Hessen, O=privacyidea, CN=CA001
        Validity
            Not Before: Sep 30 16:36:25 2016 GMT
            Not After : Sep 30 16:36:25 2017 GMT
        Subject: C=DE, ST=Hessen, O=privacyidea, CN=usercert
        Subject Public Key Info:
            Public Key Algorithm: rsaEncryption
                Public-Key: (2048 bit)
                Modulus:
                    00:dc:2f:d1:5f:29:97:d4:7c:c3:53:c8:30:bd:4b:
                    67:70:2c:24:6b:b8:5e:eb:21:7a:48:12:56:7c:81:
                    5c:48:75:b6:68:eb:f6:f2:98:4e:50:51:d1:7f:6c:
                    73:f3:0a:a7:ae:be:48:5e:e5:d6:e1:d9:2a:7c:32:
                    6e:4e:fd:08:f6:5a:54:49:23:73:c3:b9:07:18:d1:
                    ef:b3:ac:f8:8a:dc:94:96:a4:90:3a:8e:74:df:e6:
                    0d:37:1b:bd:5b:b7:25:1a:56:39:da:6f:91:aa:5e:
                    1c:74:f3:f9:7c:14:01:83:12:65:76:c7:bb:fe:36:
                    5b:95:e9:72:65:83:ed:3e:98:30:71:fa:87:dd:a3:
                    36:5a:30:03:2e:26:e0:61:d1:bf:02:3f:b6:06:1f:
                    4a:89:28:1c:5c:a2:ff:4e:be:94:e6:8c:e0:da:82:
                    f1:9d:29:32:48:30:73:b4:04:f6:42:1e:be:f7:e2:
                    32:32:27:3c:9d:89:2f:70:3e:85:9a:6f:5c:c5:09:
                    c0:8c:32:2f:72:22:c9:d2:95:1f:b6:ac:72:60:72:
                    b7:82:4d:6b:ce:5b:e3:00:d0:d2:2f:58:c6:e0:10:
                    e5:51:ca:4d:3b:2e:e6:7e:ab:84:d6:56:f1:93:35:
                    a0:93:64:26:81:75:2f:91:b5:16:06:38:0b:db:cc:
                    2d:07
                Exponent: 65537 (0x10001)
        X509v3 extensions:
            X509v3 Key Usage: 
                Digital Signature, Key Encipherment
            X509v3 Basic Constraints: 
                CA:FALSE
            Netscape Cert Type: 
                SSL Server
            Netscape Comment: 
                OpenSSL Generated Server Certificate
            X509v3 Subject Key Identifier: 
                FC:14:D1:F0:4B:8D:00:90:F2:F5:B8:71:9E:4E:97:C3:92:54:AD:0B
            X509v3 Authority Key Identifier: 
                keyid:F4:A7:C0:CC:91:46:AF:64:F3:91:F2:27:F8:C8:B2:6F:8A:87:32:73
                DirName:/C=DE/ST=Hessen/O=privacyidea/CN=CA001
                serial:FB:C8:EB:AC:83:CD:12:07

            X509v3 Extended Key Usage: 
                TLS Web Server Authentication
    Signature Algorithm: sha1WithRSAEncryption
         af:42:52:07:f7:d3:b5:fc:7a:a8:39:20:0c:0d:24:82:76:3d:
         d2:f7:52:03:12:71:ae:64:c4:5b:2e:e0:61:34:64:30:ab:37:
         7d:a0:8e:b5:70:ff:e0:dd:ef:98:1d:13:52:60:84:6c:61:7e:
         15:17:62:0f:46:87:a7:2c:64:2c:dc:9c:52:07:e5:d1:30:4f:
         b0:23:69:dc:fa:67:15:ed:73:60:14:cc:20:f2:5c:0f:bd:07:
         50:8c:0e:84:e6:4e:47:6f:46:b2:e2:83:1f:6a:9f:cd:5d:08:
         34:50:8e:9f:3c:2d:57:82:66:16:cd:14:2c:5b:d1:0d:ec:2c:
         5a:b2:cd:91:3c:c4:48:c3:08:2f:24:d5:f3:83:f0:ed:01:64:
         53:55:e4:dd:2a:75:ac:45:d4:b3:e5:ca:d6:e0:e3:bb:cd:3e:
         77:b5:0e:bd:e4:b3:31:40:b3:a3:47:5d:73:43:5e:6e:50:f7:
         59:e1:0d:2e:49:c7:65:b3:4a:0e:04:37:11:c5:81:e8:b3:39:
         13:33:6e:c0:57:cd:fa:41:f7:0f:b9:48:c4:ee:59:27:b2:53:
         45:97:9e:88:f9:d6:fa:c2:f6:b6:2a:dd:51:61:35:8f:c4:bc:
         3a:1e:85:90:78:8f:e3:a2:d0:e0:bc:4b:be:d1:12:26:4e:6f:
         83:e5:49:ba
-----BEGIN CERTIFICATE-----
MIIEGTCCAwGgAwIBAgIEEAAA3DANBgkqhkiG9w0BAQUFADBEMQswCQYDVQQGEwJE
RTEPMA0GA1UECAwGSGVzc2VuMRQwEgYDVQQKDAtwcml2YWN5aWRlYTEOMAwGA1UE
AwwFQ0EwMDEwHhcNMTYwOTMwMTYzNjI1WhcNMTcwOTMwMTYzNjI1WjBHMQswCQYD
VQQGEwJERTEPMA0GA1UECAwGSGVzc2VuMRQwEgYDVQQKDAtwcml2YWN5aWRlYTER
MA8GA1UEAwwIdXNlcmNlcnQwggEiMA0GCSqGSIb3DQEBAQUAA4IBDwAwggEKAoIB
AQDcL9FfKZfUfMNTyDC9S2dwLCRruF7rIXpIElZ8gVxIdbZo6/bymE5QUdF/bHPz
Cqeuvkhe5dbh2Sp8Mm5O/Qj2WlRJI3PDuQcY0e+zrPiK3JSWpJA6jnTf5g03G71b
tyUaVjnab5GqXhx08/l8FAGDEmV2x7v+NluV6XJlg+0+mDBx+ofdozZaMAMuJuBh
0b8CP7YGH0qJKBxcov9OvpTmjODagvGdKTJIMHO0BPZCHr734jIyJzydiS9wPoWa
b1zFCcCMMi9yIsnSlR+2rHJgcreCTWvOW+MA0NIvWMbgEOVRyk07LuZ+q4TWVvGT
NaCTZCaBdS+RtRYGOAvbzC0HAgMBAAGjggEOMIIBCjALBgNVHQ8EBAMCBaAwCQYD
VR0TBAIwADARBglghkgBhvhCAQEEBAMCBkAwMwYJYIZIAYb4QgENBCYWJE9wZW5T
U0wgR2VuZXJhdGVkIFNlcnZlciBDZXJ0aWZpY2F0ZTAdBgNVHQ4EFgQU/BTR8EuN
AJDy9bhxnk6Xw5JUrQswdAYDVR0jBG0wa4AU9KfAzJFGr2TzkfIn+Miyb4qHMnOh
SKRGMEQxCzAJBgNVBAYTAkRFMQ8wDQYDVQQIDAZIZXNzZW4xFDASBgNVBAoMC3By
aXZhY3lpZGVhMQ4wDAYDVQQDDAVDQTAwMYIJAPvI66yDzRIHMBMGA1UdJQQMMAoG
CCsGAQUFBwMBMA0GCSqGSIb3DQEBBQUAA4IBAQCvQlIH99O1/HqoOSAMDSSCdj3S
91IDEnGuZMRbLuBhNGQwqzd9oI61cP/g3e+YHRNSYIRsYX4VF2IPRoenLGQs3JxS
B+XRME+wI2nc+mcV7XNgFMwg8lwPvQdQjA6E5k5Hb0ay4oMfap/NXQg0UI6fPC1X
gmYWzRQsW9EN7Cxass2RPMRIwwgvJNXzg/DtAWRTVeTdKnWsRdSz5crW4OO7zT53
tQ695LMxQLOjR11zQ15uUPdZ4Q0uScdls0oOBDcRxYHoszkTM27AV836QfcPuUjE
7lknslNFl56I+db6wva2Kt1RYTWPxLw6HoWQeI/jotDgvEu+0RImTm+D5Um6
-----END CERTIFICATE-----
