Certificate:
    Data:
        Version: 3 (0x2)
        Serial Number: 268435708 (0x100000fc)
    Signature Algorithm: sha1WithRSAEncryption
        Issuer: C=DE, ST=Hessen, O=privacyidea, CN=CA001
        Validity
            Not Before: Apr 26 13:30:31 2016 GMT
            Not After : Apr 26 13:30:31 2017 GMT
        Subject: C=DE, ST=Hessen, O=privacyidea, CN=requester.localdomain
        Subject Public Key Info:
            Public Key Algorithm: rsaEncryption
                Public-Key: (2048 bit)
                Modulus:
                    00:cd:be:14:4f:fa:ce:01:3f:42:22:1b:1d:9c:af:
                    dd:92:d2:7f:db:6c:b7:3e:39:43:43:6b:13:03:f1:
                    05:f4:07:74:bc:76:69:28:0b:af:19:8e:d7:fc:e3:
                    cd:c6:58:f2:ca:7f:08:6d:53:fc:07:02:44:24:c6:
                    b4:34:4c:8c:04:fe:33:0e:40:e2:20:ba:02:73:5a:
                    f7:f5:4f:63:6e:cc:c6:b6:df:54:1d:37:39:7d:51:
                    36:26:5f:bd:dc:3f:a8:8b:6b:a2:ae:b6:9d:d6:21:
                    e7:df:41:b8:7a:28:2a:68:48:ca:a8:2d:ed:e1:e9:
                    46:5e:5a:72:6d:b4:84:38:87:91:fd:94:11:0b:28:
                    84:c6:c2:2f:2a:fb:01:f9:36:7a:09:75:d1:33:88:
                    3c:73:41:5b:c8:bf:94:89:70:a1:f0:c0:b9:2e:50:
                    53:1e:b1:17:64:69:f4:2d:81:e0:a9:0d:0e:32:e9:
                    ba:55:8a:85:f1:1b:6f:49:79:b4:7f:88:c3:0d:3e:
                    54:88:9b:3d:1f:38:8c:04:f3:ee:6a:63:2b:f5:c6:
                    db:b4:83:aa:c4:78:41:3a:7d:4b:e1:c8:3e:71:ca:
                    1b:61:59:ea:c6:c4:ca:32:5e:c9:e9:bf:12:29:e6:
                    c6:c3:63:fe:a0:55:da:7a:f1:60:98:4d:26:ed:fa:
                    70:2d
                Exponent: 65537 (0x10001)
        X509v3 extensions:
            X509v3 Key Usage: 
                Digital Signature, Key Encipherment
            X509v3 Basic Constraints: 
                CA:FALSE
            Netscape Cert Type: 
                SSL Server
            Netscape Comment: 
                OpenSSL Generated Server Certificate
            X509v3 Subject Key Identifier: 
                53:3F:ED:5D:09:07:B3:65:7B:AB:45:C9:24:5B:09:77:80:0A:96:ED
            X509v3 Authority Key Identifier: 
                keyid:F4:A7:C0:CC:91:46:AF:64:F3:91:F2:27:F8:C8:B2:6F:8A:87:32:73
                DirName:/C=DE/ST=Hessen/O=privacyidea/CN=CA001
                serial:FB:C8:EB:AC:83:CD:12:07

            X509v3 Extended Key Usage: 
                TLS Web Server Authentication
    Signature Algorithm: sha1WithRSAEncryption
         a9:64:22:da:55:0a:72:0f:0a:ed:ad:f8:85:ad:f5:cc:a7:95:
         5b:24:de:ba:fa:33:65:37:0e:ca:25:5d:cb:f0:88:78:7b:ea:
         bf:8b:34:ac:4b:e3:dd:82:21:a5:94:53:e3:e4:d3:fe:5c:23:
         2f:4c:a7:94:e7:a4:83:00:68:43:07:b9:ab:cf:cb:b7:89:06:
         20:11:4e:50:da:d9:a0:fc:c3:61:26:e3:f5:f4:f7:2a:41:99:
         5d:ba:4f:9c:96:1d:93:3e:d8:cd:ac:00:ca:f8:bb:c0:d6:6a:
         58:e8:2e:76:93:22:c5:e2:99:07:f8:d6:d6:08:82:6d:3c:d3:
         08:34:2c:f0:39:c8:66:0a:e6:4d:f5:7e:b9:f8:3a:bb:db:ef:
         ad:d6:75:99:bc:9f:77:48:4e:e1:a5:dc:cd:bb:5c:29:9c:65:
         e0:29:76:f6:f8:22:40:2c:d1:9c:f5:d0:c6:d1:9a:de:09:ac:
         62:de:a8:0d:e6:19:d9:e8:6a:78:df:25:43:b8:6c:88:25:3a:
         f3:e8:fe:7b:1c:74:bd:09:18:62:b5:ad:7a:7c:e1:bc:7a:4d:
         9f:7d:7c:84:d9:ae:69:fa:fa:85:ce:ca:de:44:89:96:72:8f:
         bc:f5:af:a8:79:e8:93:cf:79:0c:46:81:8e:39:ba:9a:4b:51:
         d0:85:eb:8b
-----BEGIN CERTIFICATE-----
MIIEJjCCAw6gAwIBAgIEEAAA/DANBgkqhkiG9w0BAQUFADBEMQswCQYDVQQGEwJE
RTEPMA0GA1UECAwGSGVzc2VuMRQwEgYDVQQKDAtwcml2YWN5aWRlYTEOMAwGA1UE
AwwFQ0EwMDEwHhcNMTYwNDI2MTMzMDMxWhcNMTcwNDI2MTMzMDMxWjBUMQswCQYD
VQQGEwJERTEPMA0GA1UECAwGSGVzc2VuMRQwEgYDVQQKDAtwcml2YWN5aWRlYTEe
MBwGA1UEAwwVcmVxdWVzdGVyLmxvY2FsZG9tYWluMIIBIjANBgkqhkiG9w0BAQEF
AAOCAQ8AMIIBCgKCAQEAzb4UT/rOAT9CIhsdnK/dktJ/22y3PjlDQ2sTA/EF9Ad0
vHZpKAuvGY7X/OPNxljyyn8IbVP8BwJEJMa0NEyMBP4zDkDiILoCc1r39U9jbszG
tt9UHTc5fVE2Jl+93D+oi2uirrad1iHn30G4eigqaEjKqC3t4elGXlpybbSEOIeR
/ZQRCyiExsIvKvsB+TZ6CXXRM4g8c0FbyL+UiXCh8MC5LlBTHrEXZGn0LYHgqQ0O
Mum6VYqF8RtvSXm0f4jDDT5UiJs9HziMBPPuamMr9cbbtIOqxHhBOn1L4cg+ccob
YVnqxsTKMl7J6b8SKebGw2P+oFXaevFgmE0m7fpwLQIDAQABo4IBDjCCAQowCwYD
VR0PBAQDAgWgMAkGA1UdEwQCMAAwEQYJYIZIAYb4QgEBBAQDAgZAMDMGCWCGSAGG
+EIBDQQmFiRPcGVuU1NMIEdlbmVyYXRlZCBTZXJ2ZXIgQ2VydGlmaWNhdGUwHQYD
VR0OBBYEFFM/7V0JB7Nle6tFySRbCXeACpbtMHQGA1UdIwRtMGuAFPSnwMyRRq9k
85HyJ/jIsm+KhzJzoUikRjBEMQswCQYDVQQGEwJERTEPMA0GA1UECAwGSGVzc2Vu
MRQwEgYDVQQKDAtwcml2YWN5aWRlYTEOMAwGA1UEAwwFQ0EwMDGCCQD7yOusg80S
BzATBgNVHSUEDDAKBggrBgEFBQcDATANBgkqhkiG9w0BAQUFAAOCAQEAqWQi2lUK
cg8K7a34ha31zKeVWyTeuvozZTcOyiVdy/CIeHvqv4s0rEvj3YIhpZRT4+TT/lwj
L0ynlOekgwBoQwe5q8/Lt4kGIBFOUNrZoPzDYSbj9fT3KkGZXbpPnJYdkz7YzawA
yvi7wNZqWOgudpMixeKZB/jW1giCbTzTCDQs8DnIZgrmTfV+ufg6u9vvrdZ1mbyf
d0hO4aXczbtcKZxl4Cl29vgiQCzRnPXQxtGa3gmsYt6oDeYZ2ehqeN8lQ7hsiCU6
8+j+exx0vQkYYrWtenzhvHpNn318hNmuafr6hc7K3kSJlnKPvPWvqHnok895DEaB
jjm6mktR0IXriw==
-----END CERTIFICATE-----
