Certificate:
    Data:
        Version: 3 (0x2)
        Serial Number: 268435698 (0x100000f2)
    Signature Algorithm: sha1WithRSAEncryption
        Issuer: C=DE, ST=Hessen, O=privacyidea, CN=CA001
        Validity
            Not Before: Sep 27 20:10:21 2016 GMT
            Not After : Sep 27 20:10:21 2017 GMT
        Subject: CN=selfservice,CN=user,O=realm1/emailAddress=meine
        Subject Public Key Info:
            Public Key Algorithm: rsaEncryption
                Public-Key: (2048 bit)
                Modulus:
                    00:cf:3c:d4:33:0e:12:c4:e6:da:cd:b6:56:a1:1c:
                    26:bb:26:1c:8a:4a:73:a8:58:8a:b6:1e:b3:8b:99:
                    d2:1d:07:c2:92:89:79:c0:69:d8:c8:df:28:61:98:
                    1e:b3:fe:ae:2b:bd:78:a9:f7:6e:47:dc:a3:a0:16:
                    8c:85:02:c1:4e:92:fd:72:6e:f0:c8:03:29:9b:b8:
                    00:6e:c0:83:95:c8:34:20:36:9c:b3:e5:e4:e6:76:
                    73:a3:1a:ad:40:96:e0:53:54:00:ec:76:79:9a:c6:
                    0d:7e:b6:bd:29:ec:83:f3:cb:89:a4:cb:6c:00:ba:
                    0c:c5:78:0f:ff:69:b8:94:f4:04:70:43:3f:d8:9e:
                    d7:a7:fb:5d:ce:75:8e:da:e7:c4:07:b1:9d:de:6f:
                    88:4b:b6:4d:9a:cf:f9:bc:fa:9f:cd:32:6d:f6:3a:
                    0b:0d:23:42:78:ec:97:42:bf:0e:4d:60:56:e1:d3:
                    02:f2:19:cb:84:57:90:e5:70:a1:a2:83:35:86:e2:
                    da:86:9f:f9:8a:c4:79:b3:52:28:da:cb:bb:34:ca:
                    d3:da:91:4a:cf:8d:76:a2:b2:6b:9b:f9:96:fd:09:
                    2a:da:11:23:4d:f0:cb:d6:b2:b1:0e:12:6c:9a:19:
                    65:98:87:ca:e4:ee:24:ce:44:ac:90:8f:9d:1b:c5:
                    2a:9d
                Exponent: 65537 (0x10001)
        X509v3 extensions:
            X509v3 Key Usage: 
                Digital Signature, Key Encipherment
            X509v3 Basic Constraints: 
                CA:FALSE
            Netscape Cert Type: 
                SSL Server
            Netscape Comment: 
                OpenSSL Generated Server Certificate
            X509v3 Subject Key Identifier: 
                4D:07:90:AD:FF:1D:0D:E7:1A:DD:D6:2E:FA:BA:34:CB:AA:1F:24:C6
            X509v3 Authority Key Identifier: 
                keyid:F4:A7:C0:CC:91:46:AF:64:F3:91:F2:27:F8:C8:B2:6F:8A:87:32:73
                DirName:/C=DE/ST=Hessen/O=privacyidea/CN=CA001
                serial:FB:C8:EB:AC:83:CD:12:07

            X509v3 Extended Key Usage: 
                TLS Web Server Authentication
    Signature Algorithm: sha1WithRSAEncryption
         96:74:e7:5a:8f:a3:5e:9d:26:99:d9:e0:dd:71:82:0a:21:47:
         9f:25:a8:0b:59:e8:6e:75:61:29:01:3d:05:d7:53:1a:2f:cf:
         35:5c:44:81:19:5d:69:a0:a0:fd:03:fd:da:eb:8f:a9:b1:90:
         22:11:df:18:72:96:4a:f7:46:1e:41:c8:05:3e:3b:7e:84:69:
         7f:f1:49:1c:1f:1c:90:34:d3:52:f9:19:12:b1:08:f2:5c:87:
         9f:4a:50:bf:02:8c:76:e4:73:85:64:5a:4e:41:d6:83:33:3f:
         37:ae:18:19:9b:ad:7b:54:5c:61:5d:94:9b:3d:42:52:2d:87:
         3c:21:c2:8b:6a:de:e7:42:a3:75:b1:8c:f4:2b:9a:84:66:18:
         d3:da:1f:31:2e:d9:8e:b7:c6:ae:9c:db:dd:c1:35:8a:ed:61:
         0d:9c:66:ff:e5:af:41:e2:17:b9:78:b5:9c:0c:85:d5:a7:ce:
         3a:47:bb:42:71:55:bb:3f:9f:56:2f:44:1e:87:29:4f:7a:d6:
         eb:02:c1:35:0a:8a:48:4b:10:9e:dc:b3:f9:48:cf:c3:23:e3:
         cb:cd:96:fd:df:3b:4e:73:10:d7:61:58:0f:0b:d9:54:d2:fd:
         78:33:f9:7a:17:6a:26:31:96:5d:f8:47:3c:64:7e:c4:38:a9:
         21:af:ff:68
-----BEGIN CERTIFICATE-----
MIIEDzCCAvegAwIBAgIEEAAA8jANBgkqhkiG9w0BAQUFADBEMQswCQYDVQQGEwJE
RTEPMA0GA1UECAwGSGVzc2VuMRQwEgYDVQQKDAtwcml2YWN5aWRlYTEOMAwGA1UE
AwwFQ0EwMDEwHhcNMTYwOTI3MjAxMDIxWhcNMTcwOTI3MjAxMDIxWjA9MSUwIwYD
VQQDDBxzZWxmc2VydmljZSxDTj11c2VyLE89cmVhbG0xMRQwEgYJKoZIhvcNAQkB
FgVtZWluZTCCASIwDQYJKoZIhvcNAQEBBQADggEPADCCAQoCggEBAM881DMOEsTm
2s22VqEcJrsmHIpKc6hYirYes4uZ0h0HwpKJecBp2MjfKGGYHrP+riu9eKn3bkfc
o6AWjIUCwU6S/XJu8MgDKZu4AG7Ag5XINCA2nLPl5OZ2c6MarUCW4FNUAOx2eZrG
DX62vSnsg/PLiaTLbAC6DMV4D/9puJT0BHBDP9ie16f7Xc51jtrnxAexnd5viEu2
TZrP+bz6n80ybfY6Cw0jQnjsl0K/Dk1gVuHTAvIZy4RXkOVwoaKDNYbi2oaf+YrE
ebNSKNrLuzTK09qRSs+NdqKya5v5lv0JKtoRI03wy9aysQ4SbJoZZZiHyuTuJM5E
rJCPnRvFKp0CAwEAAaOCAQ4wggEKMAsGA1UdDwQEAwIFoDAJBgNVHRMEAjAAMBEG
CWCGSAGG+EIBAQQEAwIGQDAzBglghkgBhvhCAQ0EJhYkT3BlblNTTCBHZW5lcmF0
ZWQgU2VydmVyIENlcnRpZmljYXRlMB0GA1UdDgQWBBRNB5Ct/x0N5xrd1i76ujTL
qh8kxjB0BgNVHSMEbTBrgBT0p8DMkUavZPOR8if4yLJviocyc6FIpEYwRDELMAkG
A1UEBhMCREUxDzANBgNVBAgMBkhlc3NlbjEUMBIGA1UECgwLcHJpdmFjeWlkZWEx
DjAMBgNVBAMMBUNBMDAxggkA+8jrrIPNEgcwEwYDVR0lBAwwCgYIKwYBBQUHAwEw
DQYJKoZIhvcNAQEFBQADggEBAJZ051qPo16dJpnZ4N1xggohR58lqAtZ6G51YSkB
PQXXUxovzzVcRIEZXWmgoP0D/drrj6mxkCIR3xhylkr3Rh5ByAU+O36EaX/xSRwf
HJA001L5GRKxCPJch59KUL8CjHbkc4VkWk5B1oMzPzeuGBmbrXtUXGFdlJs9QlIt
hzwhwotq3udCo3WxjPQrmoRmGNPaHzEu2Y63xq6c293BNYrtYQ2cZv/lr0HiF7l4
tZwMhdWnzjpHu0JxVbs/n1YvRB6HKU961usCwTUKikhLEJ7cs/lIz8Mj48vNlv3f
O05zENdhWA8L2VTS/Xgz+XoXaiYxll34RzxkfsQ4qSGv/2g=
-----END CERTIFICATE-----
