Certificate:
    Data:
        Version: 3 (0x2)
        Serial Number: 268435660 (0x100000cc)
    Signature Algorithm: sha1WithRSAEncryption
        Issuer: C=DE, ST=Hessen, O=privacyidea, CN=CA001
        Validity
            Not Before: Dec 22 17:49:22 2016 GMT
            Not After : Dec 22 17:49:22 2017 GMT
        Subject: CN=Steve Test/emailAddress=steve@openssl.org
        Subject Public Key Info:
            Public Key Algorithm: rsaEncryption
                Public-Key: (2048 bit)
                Modulus:
                    00:d2:81:89:20:51:48:0f:73:f4:11:32:24:d5:1f:
                    1c:fd:5c:f5:b6:e6:c5:f0:52:81:dc:d2:af:66:4a:
                    7c:93:31:61:5c:af:d1:6d:06:70:03:60:7c:72:0c:
                    88:dd:49:cd:9e:02:6c:d2:5a:d7:53:0f:f3:da:be:
                    69:64:b5:0f:0c:00:e3:b3:50:47:a3:b3:9b:ba:13:
                    50:d6:58:5a:4b:ab:39:e0:11:ca:0a:27:67:03:78:
                    22:66:6d:92:1e:1b:5c:49:ae:e6:6b:d1:8e:3b:9d:
                    06:d3:c6:ac:4d:53:43:10:ab:e8:96:c1:87:82:97:
                    99:8f:20:d3:99:12:37:31:84:e1:8a:ff:29:03:5f:
                    22:90:3e:7f:9b:e0:20:c1:ad:dc:ae:4c:39:1a:31:
                    96:17:02:8c:b2:d9:b4:0d:20:12:9b:7d:86:54:fd:
                    33:fd:c1:2a:62:46:f8:60:96:cf:6e:01:6f:22:df:
                    13:47:e7:97:ec:05:72:23:a3:62:f8:fa:ef:ac:9c:
                    72:f0:37:cb:2f:37:cf:90:a8:27:51:86:c6:d7:78:
                    08:8f:7e:25:a2:15:70:a2:fb:1c:b6:15:5e:a0:97:
                    8b:81:4c:09:28:8a:27:3b:94:bc:71:db:5b:71:37:
                    9a:2b:16:e0:6f:b5:c9:f5:4b:4f:20:ba:65:cf:af:
                    ad:ad
                Exponent: 65537 (0x10001)
        X509v3 extensions:
            X509v3 Key Usage: 
                Digital Signature, Key Encipherment
            X509v3 Basic Constraints: 
                CA:FALSE
            Netscape Cert Type: 
                SSL Server
            Netscape Comment: 
                OpenSSL Generated Server Certificate
            X509v3 Subject Key Identifier: 
                E5:25:6D:3E:AF:0D:DD:3F:4C:F2:45:19:39:D5:14:DB:7E:9C:C0:AD
            X509v3 Authority Key Identifier: 
                keyid:F4:A7:C0:CC:91:46:AF:64:F3:91:F2:27:F8:C8:B2:6F:8A:87:32:73
                DirName:/C=DE/ST=Hessen/O=privacyidea/CN=CA001
                serial:FB:C8:EB:AC:83:CD:12:07

            X509v3 Extended Key Usage: 
                TLS Web Server Authentication
    Signature Algorithm: sha1WithRSAEncryption
         2d:88:d9:9d:d5:2c:ba:be:6b:56:85:27:4c:8e:6a:d4:52:67:
         1a:6c:2f:6d:99:75:98:60:32:0a:c3:91:0b:aa:7a:4f:02:8c:
         26:32:86:30:ea:25:6c:39:60:09:f5:40:fd:cc:55:1d:84:cc:
         0a:f2:e1:98:0f:ef:f5:35:2d:33:34:17:21:11:c4:5e:af:1b:
         05:c6:28:9f:fb:66:d1:7c:32:e1:5c:07:f3:f7:e9:87:cb:a5:
         1e:20:a5:57:9d:1e:5c:cb:1f:e5:6b:37:86:d9:42:20:8b:25:
         b8:3a:c1:c4:23:09:f6:a3:2a:53:62:b8:38:39:c7:9a:d1:a3:
         de:65:8e:1e:95:53:0f:05:5b:63:47:99:16:16:b2:0b:05:74:
         e3:94:0a:28:96:6a:fb:28:cf:a5:b3:bc:b6:fb:9b:3a:91:fc:
         b2:cd:aa:43:d0:0e:6f:c7:45:e1:f5:22:33:36:3c:05:be:72:
         d6:bc:bd:25:9b:bd:d8:38:16:48:6f:50:42:3e:f3:97:57:0b:
         9f:2d:08:08:27:ff:45:63:2f:c3:4e:b1:94:e9:c6:13:5f:79:
         76:d1:cf:0f:6e:33:ce:9d:9b:20:f9:42:e5:11:71:57:42:70:
         5d:5c:9b:cf:c6:e8:6a:85:4d:d9:9d:aa:aa:d3:2f:3e:77:52:
         54:b7:27:36
-----BEGIN CERTIFICATE-----
MIIECTCCAvGgAwIBAgIEEAAAzDANBgkqhkiG9w0BAQUFADBEMQswCQYDVQQGEwJE
RTEPMA0GA1UECAwGSGVzc2VuMRQwEgYDVQQKDAtwcml2YWN5aWRlYTEOMAwGA1UE
AwwFQ0EwMDEwHhcNMTYxMjIyMTc0OTIyWhcNMTcxMjIyMTc0OTIyWjA3MRMwEQYD
VQQDDApTdGV2ZSBUZXN0MSAwHgYJKoZIhvcNAQkBFhFzdGV2ZUBvcGVuc3NsLm9y
ZzCCASIwDQYJKoZIhvcNAQEBBQADggEPADCCAQoCggEBANKBiSBRSA9z9BEyJNUf
HP1c9bbmxfBSgdzSr2ZKfJMxYVyv0W0GcANgfHIMiN1JzZ4CbNJa11MP89q+aWS1
DwwA47NQR6Ozm7oTUNZYWkurOeARygonZwN4ImZtkh4bXEmu5mvRjjudBtPGrE1T
QxCr6JbBh4KXmY8g05kSNzGE4Yr/KQNfIpA+f5vgIMGt3K5MORoxlhcCjLLZtA0g
Ept9hlT9M/3BKmJG+GCWz24BbyLfE0fnl+wFciOjYvj676yccvA3yy83z5CoJ1GG
xtd4CI9+JaIVcKL7HLYVXqCXi4FMCSiKJzuUvHHbW3E3misW4G+1yfVLTyC6Zc+v
ra0CAwEAAaOCAQ4wggEKMAsGA1UdDwQEAwIFoDAJBgNVHRMEAjAAMBEGCWCGSAGG
+EIBAQQEAwIGQDAzBglghkgBhvhCAQ0EJhYkT3BlblNTTCBHZW5lcmF0ZWQgU2Vy
dmVyIENlcnRpZmljYXRlMB0GA1UdDgQWBBTlJW0+rw3dP0zyRRk51RTbfpzArTB0
BgNVHSMEbTBrgBT0p8DMkUavZPOR8if4yLJviocyc6FIpEYwRDELMAkGA1UEBhMC
REUxDzANBgNVBAgMBkhlc3NlbjEUMBIGA1UECgwLcHJpdmFjeWlkZWExDjAMBgNV
BAMMBUNBMDAxggkA+8jrrIPNEgcwEwYDVR0lBAwwCgYIKwYBBQUHAwEwDQYJKoZI
hvcNAQEFBQADggEBAC2I2Z3VLLq+a1aFJ0yOatRSZxpsL22ZdZhgMgrDkQuqek8C
jCYyhjDqJWw5YAn1QP3MVR2EzAry4ZgP7/U1LTM0FyERxF6vGwXGKJ/7ZtF8MuFc
B/P36YfLpR4gpVedHlzLH+VrN4bZQiCLJbg6wcQjCfajKlNiuDg5x5rRo95ljh6V
Uw8FW2NHmRYWsgsFdOOUCiiWavsoz6WzvLb7mzqR/LLNqkPQDm/HReH1IjM2PAW+
cta8vSWbvdg4FkhvUEI+85dXC58tCAgn/0VjL8NOsZTpxhNfeXbRzw9uM86dmyD5
QuURcVdCcF1cm8/G6GqFTdmdqqrTLz53UlS3JzY=
-----END CERTIFICATE-----
