Certificate:
    Data:
        Version: 3 (0x2)
        Serial Number: 268435674 (0x100000da)
    Signature Algorithm: sha1WithRSAEncryption
        Issuer: C=DE, ST=Hessen, O=privacyidea, CN=CA001
        Validity
            Not Before: Dec  5 13:47:18 2016 GMT
            Not After : Dec  5 13:47:18 2017 GMT
        Subject: CN=selfservice,CN=user,O=realm1/emailAddress=meine
        Subject Public Key Info:
            Public Key Algorithm: rsaEncryption
                Public-Key: (2048 bit)
                Modulus:
                    00:cf:3c:d4:33:0e:12:c4:e6:da:cd:b6:56:a1:1c:
                    26:bb:26:1c:8a:4a:73:a8:58:8a:b6:1e:b3:8b:99:
                    d2:1d:07:c2:92:89:79:c0:69:d8:c8:df:28:61:98:
                    1e:b3:fe:ae:2b:bd:78:a9:f7:6e:47:dc:a3:a0:16:
                    8c:85:02:c1:4e:92:fd:72:6e:f0:c8:03:29:9b:b8:
                    00:6e:c0:83:95:c8:34:20:36:9c:b3:e5:e4:e6:76:
                    73:a3:1a:ad:40:96:e0:53:54:00:ec:76:79:9a:c6:
                    0d:7e:b6:bd:29:ec:83:f3:cb:89:a4:cb:6c:00:ba:
                    0c:c5:78:0f:ff:69:b8:94:f4:04:70:43:3f:d8:9e:
                    d7:a7:fb:5d:ce:75:8e:da:e7:c4:07:b1:9d:de:6f:
                    88:4b:b6:4d:9a:cf:f9:bc:fa:9f:cd:32:6d:f6:3a:
                    0b:0d:23:42:78:ec:97:42:bf:0e:4d:60:56:e1:d3:
                    02:f2:19:cb:84:57:90:e5:70:a1:a2:83:35:86:e2:
                    da:86:9f:f9:8a:c4:79:b3:52:28:da:cb:bb:34:ca:
                    d3:da:91:4a:cf:8d:76:a2:b2:6b:9b:f9:96:fd:09:
                    2a:da:11:23:4d:f0:cb:d6:b2:b1:0e:12:6c:9a:19:
                    65:98:87:ca:e4:ee:24:ce:44:ac:90:8f:9d:1b:c5:
                    2a:9d
                Exponent: 65537 (0x10001)
        X509v3 extensions:
            X509v3 Key Usage: 
                Digital Signature, Key Encipherment
            X509v3 Basic Constraints: 
                CA:FALSE
            Netscape Cert Type: 
                SSL Server
            Netscape Comment: 
                OpenSSL Generated Server Certificate
            X509v3 Subject Key Identifier: 
                4D:07:90:AD:FF:1D:0D:E7:1A:DD:D6:2E:FA:BA:34:CB:AA:1F:24:C6
            X509v3 Authority Key Identifier: 
                keyid:F4:A7:C0:CC:91:46:AF:64:F3:91:F2:27:F8:C8:B2:6F:8A:87:32:73
                DirName:/C=DE/ST=Hessen/O=privacyidea/CN=CA001
                serial:FB:C8:EB:AC:83:CD:12:07

            X509v3 Extended Key Usage: 
                TLS Web Server Authentication
    Signature Algorithm: sha1WithRSAEncryption
         1d:69:53:13:72:2d:bb:ef:f9:9e:45:c5:4c:27:be:84:cb:1b:
         1b:f4:a1:20:bf:95:6d:13:4b:4e:d6:76:32:c8:10:ac:09:23:
         22:c0:ec:2b:0d:71:b5:80:62:fa:a4:24:7d:ef:6f:13:eb:70:
         04:89:f1:11:a6:71:73:6d:7f:5c:ec:46:6f:fc:75:0c:7b:c0:
         a2:92:f9:db:82:2d:a2:56:a3:26:37:98:2a:46:3f:b0:bf:2e:
         e1:eb:31:53:31:7c:5b:96:a0:97:f2:2c:68:be:7d:5b:7d:bb:
         10:3d:05:71:62:fb:9e:98:b1:77:9a:04:9b:19:6b:06:fd:0a:
         bc:74:16:d7:91:5a:e3:bd:60:91:ce:77:41:0f:9c:a2:00:1f:
         11:98:b2:b2:92:c3:8d:2f:7b:80:87:43:a2:91:a2:66:08:89:
         7d:0d:04:c5:51:f4:2d:ea:ff:8c:08:41:c8:a8:cc:8d:19:a1:
         4e:54:b9:b5:07:88:db:c8:07:d8:44:30:8d:f9:9d:2b:63:c2:
         6d:65:30:43:1e:bd:3d:14:a6:af:c6:c6:4e:69:c5:72:1f:b9:
         b0:3e:c2:f4:27:a7:5e:6f:db:8f:cd:11:a4:81:f9:a0:29:81:
         e0:cf:12:ab:54:f3:b1:94:81:99:a7:3a:e5:b4:98:e1:3b:6b:
         84:62:27:32
-----BEGIN CERTIFICATE-----
MIIEDzCCAvegAwIBAgIEEAAA2jANBgkqhkiG9w0BAQUFADBEMQswCQYDVQQGEwJE
RTEPMA0GA1UECAwGSGVzc2VuMRQwEgYDVQQKDAtwcml2YWN5aWRlYTEOMAwGA1UE
AwwFQ0EwMDEwHhcNMTYxMjA1MTM0NzE4WhcNMTcxMjA1MTM0NzE4WjA9MSUwIwYD
VQQDDBxzZWxmc2VydmljZSxDTj11c2VyLE89cmVhbG0xMRQwEgYJKoZIhvcNAQkB
FgVtZWluZTCCASIwDQYJKoZIhvcNAQEBBQADggEPADCCAQoCggEBAM881DMOEsTm
2s22VqEcJrsmHIpKc6hYirYes4uZ0h0HwpKJecBp2MjfKGGYHrP+riu9eKn3bkfc
o6AWjIUCwU6S/XJu8MgDKZu4AG7Ag5XINCA2nLPl5OZ2c6MarUCW4FNUAOx2eZrG
DX62vSnsg/PLiaTLbAC6DMV4D/9puJT0BHBDP9ie16f7Xc51jtrnxAexnd5viEu2
TZrP+bz6n80ybfY6Cw0jQnjsl0K/Dk1gVuHTAvIZy4RXkOVwoaKDNYbi2oaf+YrE
ebNSKNrLuzTK09qRSs+NdqKya5v5lv0JKtoRI03wy9aysQ4SbJoZZZiHyuTuJM5E
rJCPnRvFKp0CAwEAAaOCAQ4wggEKMAsGA1UdDwQEAwIFoDAJBgNVHRMEAjAAMBEG
CWCGSAGG+EIBAQQEAwIGQDAzBglghkgBhvhCAQ0EJhYkT3BlblNTTCBHZW5lcmF0
ZWQgU2VydmVyIENlcnRpZmljYXRlMB0GA1UdDgQWBBRNB5Ct/x0N5xrd1i76ujTL
qh8kxjB0BgNVHSMEbTBrgBT0p8DMkUavZPOR8if4yLJviocyc6FIpEYwRDELMAkG
A1UEBhMCREUxDzANBgNVBAgMBkhlc3NlbjEUMBIGA1UECgwLcHJpdmFjeWlkZWEx
DjAMBgNVBAMMBUNBMDAxggkA+8jrrIPNEgcwEwYDVR0lBAwwCgYIKwYBBQUHAwEw
DQYJKoZIhvcNAQEFBQADggEBAB1pUxNyLbvv+Z5FxUwnvoTLGxv0oSC/lW0TS07W
djLIEKwJIyLA7CsNcbWAYvqkJH3vbxPrcASJ8RGmcXNtf1zsRm/8dQx7wKKS+duC
LaJWoyY3mCpGP7C/LuHrMVMxfFuWoJfyLGi+fVt9uxA9BXFi+56YsXeaBJsZawb9
Crx0FteRWuO9YJHOd0EPnKIAHxGYsrKSw40ve4CHQ6KRomYIiX0NBMVR9C3q/4wI
QciozI0ZoU5UubUHiNvIB9hEMI35nStjwm1lMEMevT0Upq/Gxk5pxXIfubA+wvQn
p15v24/NEaSB+aApgeDPEqtU87GUgZmnOuW0mOE7a4RiJzI=
-----END CERTIFICATE-----
