Certificate:
    Data:
        Version: 3 (0x2)
        Serial Number: 268435710 (0x100000fe)
    Signature Algorithm: sha1WithRSAEncryption
        Issuer: C=DE, ST=Hessen, O=privacyidea, CN=CA001
        Validity
            Not Before: Apr 26 13:31:01 2016 GMT
            Not After : Apr 26 13:31:01 2017 GMT
        Subject: OU=realm1, CN=cornelius/emailAddress=user@localhost.localdomain
        Subject Public Key Info:
            Public Key Algorithm: rsaEncryption
                Public-Key: (2048 bit)
                Modulus:
                    00:bb:3b:40:e8:b7:f0:34:da:28:e7:d5:83:fc:c8:
                    a8:c5:3a:09:1b:2c:c0:43:d5:00:4b:72:7e:f2:ea:
                    bb:11:97:a4:2e:c9:81:60:93:60:e4:bb:be:7f:d3:
                    33:06:3a:82:b4:c9:4c:d8:f3:28:8f:f1:51:cb:4d:
                    9d:f2:b7:43:9b:b7:84:0e:60:b2:5c:d4:be:dc:e2:
                    22:01:5d:5c:a8:4f:01:31:a0:d1:a6:29:bc:ea:6c:
                    1b:23:92:ce:0b:eb:60:af:a5:da:6a:d1:03:5c:92:
                    ba:99:c6:05:93:d3:1c:f6:3c:67:18:35:76:60:43:
                    62:9e:3d:5d:41:f5:03:dc:af:db:7a:2c:91:b0:77:
                    75:87:c7:48:9d:8f:ed:9f:ce:2d:81:11:36:b1:bd:
                    4a:cb:5f:11:4e:ce:90:1a:67:65:79:7f:21:30:6a:
                    97:6d:84:ef:75:ab:8e:22:d6:73:90:e5:ea:31:16:
                    51:62:0c:d3:ac:a8:19:cd:e4:34:41:e5:3b:f3:49:
                    67:8a:12:f8:7f:63:dd:e2:c1:0f:84:c5:e7:f9:c5:
                    9f:5f:73:19:91:78:78:9f:10:d0:98:bc:31:b0:3b:
                    22:1e:77:c4:76:1f:3f:26:99:77:11:85:20:6e:d8:
                    61:8f:9e:6b:a0:58:ff:85:5d:7c:9e:72:80:73:d1:
                    62:73
                Exponent: 65537 (0x10001)
        X509v3 extensions:
            X509v3 Key Usage: 
                Digital Signature, Key Encipherment
            X509v3 Basic Constraints: 
                CA:FALSE
            Netscape Cert Type: 
                SSL Server
            Netscape Comment: 
                OpenSSL Generated Server Certificate
            X509v3 Subject Key Identifier: 
                C9:6B:56:4D:34:5C:EF:E3:45:82:0A:BE:F5:F0:86:9E:F0:CE:C0:9E
            X509v3 Authority Key Identifier: 
                keyid:F4:A7:C0:CC:91:46:AF:64:F3:91:F2:27:F8:C8:B2:6F:8A:87:32:73
                DirName:/C=DE/ST=Hessen/O=privacyidea/CN=CA001
                serial:FB:C8:EB:AC:83:CD:12:07

            X509v3 Extended Key Usage: 
                TLS Web Server Authentication
    Signature Algorithm: sha1WithRSAEncryption
         66:6d:74:d6:ea:bc:e1:2e:96:36:2d:bc:54:0a:68:dc:83:d1:
         7b:ba:fd:fe:f7:0b:5b:25:24:d3:ea:48:4b:a4:ab:10:b2:3b:
         cc:53:78:b6:cc:bb:5f:9f:df:5e:e5:db:95:ee:5b:bc:53:e6:
         84:8a:08:df:26:cc:53:cd:85:ce:ce:ca:85:10:83:4c:aa:78:
         42:a1:9d:bb:4b:62:83:34:be:60:a0:4d:ea:d3:dc:a3:c5:42:
         7a:41:6d:bc:a9:01:ce:62:49:37:d8:56:7b:67:a5:02:f2:ad:
         3a:9e:b7:3a:5b:12:58:c8:87:8f:9a:27:46:44:cb:26:97:cc:
         70:71:10:ca:e9:9f:df:e8:78:dd:a0:d0:a6:3e:1d:ce:5c:e2:
         d0:8c:23:34:06:76:b3:70:d2:f4:41:6c:63:7c:d9:26:17:8c:
         45:c7:29:48:3f:3a:ad:3e:c9:da:be:13:7c:bb:ec:c8:38:0e:
         b5:1b:61:d6:9d:5d:bc:3a:fd:e9:48:d2:f4:07:6d:2b:f6:d7:
         b1:ea:4b:be:79:2f:72:8f:1c:21:1d:68:7f:77:f0:c1:84:46:
         25:c3:70:18:4d:14:c2:2f:8d:71:31:86:02:fe:d2:4a:9b:96:
         c9:b1:6c:12:cc:88:50:cf:41:43:b1:ca:50:dc:f8:8b:cd:26:
         01:72:eb:36
-----BEGIN CERTIFICATE-----
MIIEIjCCAwqgAwIBAgIEEAAA/jANBgkqhkiG9w0BAQUFADBEMQswCQYDVQQGEwJE
RTEPMA0GA1UECAwGSGVzc2VuMRQwEgYDVQQKDAtwcml2YWN5aWRlYTEOMAwGA1UE
AwwFQ0EwMDEwHhcNMTYwNDI2MTMzMTAxWhcNMTcwNDI2MTMzMTAxWjBQMQ8wDQYD
VQQLEwZyZWFsbTExEjAQBgNVBAMTCWNvcm5lbGl1czEpMCcGCSqGSIb3DQEJARYa
dXNlckBsb2NhbGhvc3QubG9jYWxkb21haW4wggEiMA0GCSqGSIb3DQEBAQUAA4IB
DwAwggEKAoIBAQC7O0Dot/A02ijn1YP8yKjFOgkbLMBD1QBLcn7y6rsRl6QuyYFg
k2Dku75/0zMGOoK0yUzY8yiP8VHLTZ3yt0Obt4QOYLJc1L7c4iIBXVyoTwExoNGm
KbzqbBsjks4L62Cvpdpq0QNckrqZxgWT0xz2PGcYNXZgQ2KePV1B9QPcr9t6LJGw
d3WHx0idj+2fzi2BETaxvUrLXxFOzpAaZ2V5fyEwapdthO91q44i1nOQ5eoxFlFi
DNOsqBnN5DRB5TvzSWeKEvh/Y93iwQ+Exef5xZ9fcxmReHifENCYvDGwOyIed8R2
Hz8mmXcRhSBu2GGPnmugWP+FXXyecoBz0WJzAgMBAAGjggEOMIIBCjALBgNVHQ8E
BAMCBaAwCQYDVR0TBAIwADARBglghkgBhvhCAQEEBAMCBkAwMwYJYIZIAYb4QgEN
BCYWJE9wZW5TU0wgR2VuZXJhdGVkIFNlcnZlciBDZXJ0aWZpY2F0ZTAdBgNVHQ4E
FgQUyWtWTTRc7+NFggq+9fCGnvDOwJ4wdAYDVR0jBG0wa4AU9KfAzJFGr2TzkfIn
+Miyb4qHMnOhSKRGMEQxCzAJBgNVBAYTAkRFMQ8wDQYDVQQIDAZIZXNzZW4xFDAS
BgNVBAoMC3ByaXZhY3lpZGVhMQ4wDAYDVQQDDAVDQTAwMYIJAPvI66yDzRIHMBMG
A1UdJQQMMAoGCCsGAQUFBwMBMA0GCSqGSIb3DQEBBQUAA4IBAQBmbXTW6rzhLpY2
LbxUCmjcg9F7uv3+9wtbJSTT6khLpKsQsjvMU3i2zLtfn99e5duV7lu8U+aEigjf
JsxTzYXOzsqFEINMqnhCoZ27S2KDNL5goE3q09yjxUJ6QW28qQHOYkk32FZ7Z6UC
8q06nrc6WxJYyIePmidGRMsml8xwcRDK6Z/f6HjdoNCmPh3OXOLQjCM0BnazcNL0
QWxjfNkmF4xFxylIPzqtPsnavhN8u+zIOA61G2HWnV28Ov3pSNL0B20r9tex6ku+
eS9yjxwhHWh/d/DBhEYlw3AYTRTCL41xMYYC/tJKm5bJsWwSzIhQz0FDscpQ3PiL
zSYBcus2
-----END CERTIFICATE-----
