Certificate:
    Data:
        Version: 3 (0x2)
        Serial Number: 268435702 (0x100000f6)
    Signature Algorithm: sha1WithRSAEncryption
        Issuer: C=DE, ST=Hessen, O=privacyidea, CN=CA001
        Validity
            Not Before: Sep 27 20:17:06 2016 GMT
            Not After : Sep 27 20:17:06 2017 GMT
        Subject: CN=Steve Test/emailAddress=steve@openssl.org
        Subject Public Key Info:
            Public Key Algorithm: rsaEncryption
                Public-Key: (2048 bit)
                Modulus:
                    00:d2:81:89:20:51:48:0f:73:f4:11:32:24:d5:1f:
                    1c:fd:5c:f5:b6:e6:c5:f0:52:81:dc:d2:af:66:4a:
                    7c:93:31:61:5c:af:d1:6d:06:70:03:60:7c:72:0c:
                    88:dd:49:cd:9e:02:6c:d2:5a:d7:53:0f:f3:da:be:
                    69:64:b5:0f:0c:00:e3:b3:50:47:a3:b3:9b:ba:13:
                    50:d6:58:5a:4b:ab:39:e0:11:ca:0a:27:67:03:78:
                    22:66:6d:92:1e:1b:5c:49:ae:e6:6b:d1:8e:3b:9d:
                    06:d3:c6:ac:4d:53:43:10:ab:e8:96:c1:87:82:97:
                    99:8f:20:d3:99:12:37:31:84:e1:8a:ff:29:03:5f:
                    22:90:3e:7f:9b:e0:20:c1:ad:dc:ae:4c:39:1a:31:
                    96:17:02:8c:b2:d9:b4:0d:20:12:9b:7d:86:54:fd:
                    33:fd:c1:2a:62:46:f8:60:96:cf:6e:01:6f:22:df:
                    13:47:e7:97:ec:05:72:23:a3:62:f8:fa:ef:ac:9c:
                    72:f0:37:cb:2f:37:cf:90:a8:27:51:86:c6:d7:78:
                    08:8f:7e:25:a2:15:70:a2:fb:1c:b6:15:5e:a0:97:
                    8b:81:4c:09:28:8a:27:3b:94:bc:71:db:5b:71:37:
                    9a:2b:16:e0:6f:b5:c9:f5:4b:4f:20:ba:65:cf:af:
                    ad:ad
                Exponent: 65537 (0x10001)
        X509v3 extensions:
            X509v3 Key Usage: 
                Digital Signature, Key Encipherment
            X509v3 Basic Constraints: 
                CA:FALSE
            Netscape Cert Type: 
                SSL Server
            Netscape Comment: 
                OpenSSL Generated Server Certificate
            X509v3 Subject Key Identifier: 
                E5:25:6D:3E:AF:0D:DD:3F:4C:F2:45:19:39:D5:14:DB:7E:9C:C0:AD
            X509v3 Authority Key Identifier: 
                keyid:F4:A7:C0:CC:91:46:AF:64:F3:91:F2:27:F8:C8:B2:6F:8A:87:32:73
                DirName:/C=DE/ST=Hessen/O=privacyidea/CN=CA001
                serial:FB:C8:EB:AC:83:CD:12:07

            X509v3 Extended Key Usage: 
                TLS Web Server Authentication
    Signature Algorithm: sha1WithRSAEncryption
         7e:57:ab:3e:88:8c:2c:c5:fc:45:9e:f0:0d:cf:24:d4:51:88:
         ef:95:1a:4a:1a:f6:58:ce:97:c8:6e:48:33:fe:57:a1:79:68:
         f9:ff:ce:f8:15:85:5a:f3:3e:64:86:84:5f:6e:a3:34:6f:05:
         08:f4:ee:9d:11:b2:e9:91:74:e2:77:ce:86:8e:2a:1b:ec:b8:
         16:db:2f:0c:fd:0b:fe:ab:48:21:12:b9:1a:6c:b5:48:17:fb:
         b5:8f:2e:87:04:3f:e1:79:bd:4a:e5:b1:27:3b:d5:0c:e7:03:
         75:f7:84:e9:e0:be:b3:42:ca:dc:ca:71:45:d8:04:0c:70:d0:
         8d:8c:94:0b:b7:bb:24:09:d7:2a:4e:9c:64:78:49:b4:52:96:
         dd:3c:b0:2b:05:d1:79:0d:54:ff:02:68:5f:63:93:89:a9:2b:
         a0:5f:02:36:d7:13:65:ba:f6:ae:b4:32:d5:1d:f9:08:f6:08:
         8f:34:25:30:26:d4:2c:3b:94:58:36:46:41:46:3c:2c:af:a5:
         cc:c3:fe:e0:b7:f2:92:34:b6:b1:41:14:20:b6:37:76:89:6a:
         11:a5:6b:9b:2f:25:c5:31:99:93:e0:31:8c:cd:a6:5e:70:32:
         66:f8:82:ed:5f:eb:f0:b7:67:80:bb:10:1e:32:95:8d:cd:8f:
         8a:ae:c3:a5
-----BEGIN CERTIFICATE-----
MIIECTCCAvGgAwIBAgIEEAAA9jANBgkqhkiG9w0BAQUFADBEMQswCQYDVQQGEwJE
RTEPMA0GA1UECAwGSGVzc2VuMRQwEgYDVQQKDAtwcml2YWN5aWRlYTEOMAwGA1UE
AwwFQ0EwMDEwHhcNMTYwOTI3MjAxNzA2WhcNMTcwOTI3MjAxNzA2WjA3MRMwEQYD
VQQDDApTdGV2ZSBUZXN0MSAwHgYJKoZIhvcNAQkBFhFzdGV2ZUBvcGVuc3NsLm9y
ZzCCASIwDQYJKoZIhvcNAQEBBQADggEPADCCAQoCggEBANKBiSBRSA9z9BEyJNUf
HP1c9bbmxfBSgdzSr2ZKfJMxYVyv0W0GcANgfHIMiN1JzZ4CbNJa11MP89q+aWS1
DwwA47NQR6Ozm7oTUNZYWkurOeARygonZwN4ImZtkh4bXEmu5mvRjjudBtPGrE1T
QxCr6JbBh4KXmY8g05kSNzGE4Yr/KQNfIpA+f5vgIMGt3K5MORoxlhcCjLLZtA0g
Ept9hlT9M/3BKmJG+GCWz24BbyLfE0fnl+wFciOjYvj676yccvA3yy83z5CoJ1GG
xtd4CI9+JaIVcKL7HLYVXqCXi4FMCSiKJzuUvHHbW3E3misW4G+1yfVLTyC6Zc+v
ra0CAwEAAaOCAQ4wggEKMAsGA1UdDwQEAwIFoDAJBgNVHRMEAjAAMBEGCWCGSAGG
+EIBAQQEAwIGQDAzBglghkgBhvhCAQ0EJhYkT3BlblNTTCBHZW5lcmF0ZWQgU2Vy
dmVyIENlcnRpZmljYXRlMB0GA1UdDgQWBBTlJW0+rw3dP0zyRRk51RTbfpzArTB0
BgNVHSMEbTBrgBT0p8DMkUavZPOR8if4yLJviocyc6FIpEYwRDELMAkGA1UEBhMC
REUxDzANBgNVBAgMBkhlc3NlbjEUMBIGA1UECgwLcHJpdmFjeWlkZWExDjAMBgNV
BAMMBUNBMDAxggkA+8jrrIPNEgcwEwYDVR0lBAwwCgYIKwYBBQUHAwEwDQYJKoZI
hvcNAQEFBQADggEBAH5Xqz6IjCzF/EWe8A3PJNRRiO+VGkoa9ljOl8huSDP+V6F5
aPn/zvgVhVrzPmSGhF9uozRvBQj07p0RsumRdOJ3zoaOKhvsuBbbLwz9C/6rSCES
uRpstUgX+7WPLocEP+F5vUrlsSc71QznA3X3hOngvrNCytzKcUXYBAxw0I2MlAu3
uyQJ1ypOnGR4SbRSlt08sCsF0XkNVP8CaF9jk4mpK6BfAjbXE2W69q60MtUd+Qj2
CI80JTAm1Cw7lFg2RkFGPCyvpczD/uC38pI0trFBFCC2N3aJahGla5svJcUxmZPg
MYzNpl5wMmb4gu1f6/C3Z4C7EB4ylY3Nj4quw6U=
-----END CERTIFICATE-----
