Certificate:
    Data:
        Version: 3 (0x2)
        Serial Number: 268435687 (0x100000e7)
    Signature Algorithm: sha1WithRSAEncryption
        Issuer: C=DE, ST=Hessen, O=privacyidea, CN=CA001
        Validity
            Not Before: Sep 27 19:50:04 2016 GMT
            Not After : Sep 27 19:50:04 2017 GMT
        Subject: C=DE, ST=Hessen, O=privacyidea, CN=requester.localdomain
        Subject Public Key Info:
            Public Key Algorithm: rsaEncryption
                Public-Key: (2048 bit)
                Modulus:
                    00:cd:be:14:4f:fa:ce:01:3f:42:22:1b:1d:9c:af:
                    dd:92:d2:7f:db:6c:b7:3e:39:43:43:6b:13:03:f1:
                    05:f4:07:74:bc:76:69:28:0b:af:19:8e:d7:fc:e3:
                    cd:c6:58:f2:ca:7f:08:6d:53:fc:07:02:44:24:c6:
                    b4:34:4c:8c:04:fe:33:0e:40:e2:20:ba:02:73:5a:
                    f7:f5:4f:63:6e:cc:c6:b6:df:54:1d:37:39:7d:51:
                    36:26:5f:bd:dc:3f:a8:8b:6b:a2:ae:b6:9d:d6:21:
                    e7:df:41:b8:7a:28:2a:68:48:ca:a8:2d:ed:e1:e9:
                    46:5e:5a:72:6d:b4:84:38:87:91:fd:94:11:0b:28:
                    84:c6:c2:2f:2a:fb:01:f9:36:7a:09:75:d1:33:88:
                    3c:73:41:5b:c8:bf:94:89:70:a1:f0:c0:b9:2e:50:
                    53:1e:b1:17:64:69:f4:2d:81:e0:a9:0d:0e:32:e9:
                    ba:55:8a:85:f1:1b:6f:49:79:b4:7f:88:c3:0d:3e:
                    54:88:9b:3d:1f:38:8c:04:f3:ee:6a:63:2b:f5:c6:
                    db:b4:83:aa:c4:78:41:3a:7d:4b:e1:c8:3e:71:ca:
                    1b:61:59:ea:c6:c4:ca:32:5e:c9:e9:bf:12:29:e6:
                    c6:c3:63:fe:a0:55:da:7a:f1:60:98:4d:26:ed:fa:
                    70:2d
                Exponent: 65537 (0x10001)
        X509v3 extensions:
            X509v3 Key Usage: 
                Digital Signature, Key Encipherment
            X509v3 Basic Constraints: 
                CA:FALSE
            Netscape Cert Type: 
                SSL Server
            Netscape Comment: 
                OpenSSL Generated Server Certificate
            X509v3 Subject Key Identifier: 
                53:3F:ED:5D:09:07:B3:65:7B:AB:45:C9:24:5B:09:77:80:0A:96:ED
            X509v3 Authority Key Identifier: 
                keyid:F4:A7:C0:CC:91:46:AF:64:F3:91:F2:27:F8:C8:B2:6F:8A:87:32:73
                DirName:/C=DE/ST=Hessen/O=privacyidea/CN=CA001
                serial:FB:C8:EB:AC:83:CD:12:07

            X509v3 Extended Key Usage: 
                TLS Web Server Authentication
    Signature Algorithm: sha1WithRSAEncryption
         15:60:2c:6b:30:d1:0c:cc:44:c0:42:1d:b7:b0:f4:f1:46:c2:
         17:e1:dd:8a:6c:f6:a9:7c:49:6e:48:2b:f7:69:21:a6:3f:63:
         96:ed:50:fa:bb:2c:89:e6:f6:79:44:bb:e4:f0:96:79:a9:33:
         d0:09:e2:c8:33:91:9e:69:03:1a:f3:ce:0a:b9:03:92:60:6b:
         2c:be:59:3d:fd:ea:5b:75:e3:41:f1:5d:eb:52:ca:a6:92:8f:
         5f:fd:0f:9c:8e:5e:2a:00:ad:9f:80:6a:4b:6f:03:c5:c7:db:
         59:44:8f:c7:cc:6a:0a:59:b6:2b:09:b2:11:b5:aa:75:fb:c8:
         57:bc:7b:19:d2:4f:56:3e:c3:81:92:52:78:1d:11:7b:80:b2:
         ac:9f:b7:7a:3f:ed:ff:50:3f:a0:32:10:2d:07:b1:a9:4b:25:
         4a:17:f4:df:2f:5b:15:1c:d2:48:be:65:6c:f1:5b:5d:6a:91:
         0c:87:79:54:e8:a2:c7:7a:26:9f:c5:8d:77:d8:4d:5e:d3:15:
         c4:97:e0:87:8a:a8:af:6e:5d:9b:13:f9:13:c2:a1:d6:6d:47:
         ad:11:6b:0c:fd:58:65:e0:f3:a6:fa:a1:c1:4a:c4:8a:57:90:
         dd:24:76:53:ae:78:94:7b:ef:9a:5a:ce:77:16:a1:41:4c:cc:
         f3:cc:30:46
-----BEGIN CERTIFICATE-----
MIIEJjCCAw6gAwIBAgIEEAAA5zANBgkqhkiG9w0BAQUFADBEMQswCQYDVQQGEwJE
RTEPMA0GA1UECAwGSGVzc2VuMRQwEgYDVQQKDAtwcml2YWN5aWRlYTEOMAwGA1UE
AwwFQ0EwMDEwHhcNMTYwOTI3MTk1MDA0WhcNMTcwOTI3MTk1MDA0WjBUMQswCQYD
VQQGEwJERTEPMA0GA1UECAwGSGVzc2VuMRQwEgYDVQQKDAtwcml2YWN5aWRlYTEe
MBwGA1UEAwwVcmVxdWVzdGVyLmxvY2FsZG9tYWluMIIBIjANBgkqhkiG9w0BAQEF
AAOCAQ8AMIIBCgKCAQEAzb4UT/rOAT9CIhsdnK/dktJ/22y3PjlDQ2sTA/EF9Ad0
vHZpKAuvGY7X/OPNxljyyn8IbVP8BwJEJMa0NEyMBP4zDkDiILoCc1r39U9jbszG
tt9UHTc5fVE2Jl+93D+oi2uirrad1iHn30G4eigqaEjKqC3t4elGXlpybbSEOIeR
/ZQRCyiExsIvKvsB+TZ6CXXRM4g8c0FbyL+UiXCh8MC5LlBTHrEXZGn0LYHgqQ0O
Mum6VYqF8RtvSXm0f4jDDT5UiJs9HziMBPPuamMr9cbbtIOqxHhBOn1L4cg+ccob
YVnqxsTKMl7J6b8SKebGw2P+oFXaevFgmE0m7fpwLQIDAQABo4IBDjCCAQowCwYD
VR0PBAQDAgWgMAkGA1UdEwQCMAAwEQYJYIZIAYb4QgEBBAQDAgZAMDMGCWCGSAGG
+EIBDQQmFiRPcGVuU1NMIEdlbmVyYXRlZCBTZXJ2ZXIgQ2VydGlmaWNhdGUwHQYD
VR0OBBYEFFM/7V0JB7Nle6tFySRbCXeACpbtMHQGA1UdIwRtMGuAFPSnwMyRRq9k
85HyJ/jIsm+KhzJzoUikRjBEMQswCQYDVQQGEwJERTEPMA0GA1UECAwGSGVzc2Vu
MRQwEgYDVQQKDAtwcml2YWN5aWRlYTEOMAwGA1UEAwwFQ0EwMDGCCQD7yOusg80S
BzATBgNVHSUEDDAKBggrBgEFBQcDATANBgkqhkiG9w0BAQUFAAOCAQEAFWAsazDR
DMxEwEIdt7D08UbCF+Hdimz2qXxJbkgr92khpj9jlu1Q+rssieb2eUS75PCWeakz
0AniyDORnmkDGvPOCrkDkmBrLL5ZPf3qW3XjQfFd61LKppKPX/0PnI5eKgCtn4Bq
S28DxcfbWUSPx8xqClm2KwmyEbWqdfvIV7x7GdJPVj7DgZJSeB0Re4CyrJ+3ej/t
/1A/oDIQLQexqUslShf03y9bFRzSSL5lbPFbXWqRDId5VOiix3omn8WNd9hNXtMV
xJfgh4qor25dmxP5E8Kh1m1HrRFrDP1YZeDzpvqhwUrEileQ3SR2U654lHvvmlrO
dxahQUzM88wwRg==
-----END CERTIFICATE-----
