Certificate:
    Data:
        Version: 3 (0x2)
        Serial Number: 268435663 (0x100000cf)
    Signature Algorithm: sha1WithRSAEncryption
        Issuer: C=DE, ST=Hessen, O=privacyidea, CN=CA001
        Validity
            Not Before: Dec 22 18:02:27 2016 GMT
            Not After : Dec 22 18:02:27 2017 GMT
        Subject: CN=selfservice,CN=user,O=realm1/emailAddress=meine
        Subject Public Key Info:
            Public Key Algorithm: rsaEncryption
                Public-Key: (2048 bit)
                Modulus:
                    00:cf:3c:d4:33:0e:12:c4:e6:da:cd:b6:56:a1:1c:
                    26:bb:26:1c:8a:4a:73:a8:58:8a:b6:1e:b3:8b:99:
                    d2:1d:07:c2:92:89:79:c0:69:d8:c8:df:28:61:98:
                    1e:b3:fe:ae:2b:bd:78:a9:f7:6e:47:dc:a3:a0:16:
                    8c:85:02:c1:4e:92:fd:72:6e:f0:c8:03:29:9b:b8:
                    00:6e:c0:83:95:c8:34:20:36:9c:b3:e5:e4:e6:76:
                    73:a3:1a:ad:40:96:e0:53:54:00:ec:76:79:9a:c6:
                    0d:7e:b6:bd:29:ec:83:f3:cb:89:a4:cb:6c:00:ba:
                    0c:c5:78:0f:ff:69:b8:94:f4:04:70:43:3f:d8:9e:
                    d7:a7:fb:5d:ce:75:8e:da:e7:c4:07:b1:9d:de:6f:
                    88:4b:b6:4d:9a:cf:f9:bc:fa:9f:cd:32:6d:f6:3a:
                    0b:0d:23:42:78:ec:97:42:bf:0e:4d:60:56:e1:d3:
                    02:f2:19:cb:84:57:90:e5:70:a1:a2:83:35:86:e2:
                    da:86:9f:f9:8a:c4:79:b3:52:28:da:cb:bb:34:ca:
                    d3:da:91:4a:cf:8d:76:a2:b2:6b:9b:f9:96:fd:09:
                    2a:da:11:23:4d:f0:cb:d6:b2:b1:0e:12:6c:9a:19:
                    65:98:87:ca:e4:ee:24:ce:44:ac:90:8f:9d:1b:c5:
                    2a:9d
                Exponent: 65537 (0x10001)
        X509v3 extensions:
            X509v3 Key Usage: 
                Digital Signature, Key Encipherment
            X509v3 Basic Constraints: 
                CA:FALSE
            Netscape Cert Type: 
                SSL Server
            Netscape Comment: 
                OpenSSL Generated Server Certificate
            X509v3 Subject Key Identifier: 
                4D:07:90:AD:FF:1D:0D:E7:1A:DD:D6:2E:FA:BA:34:CB:AA:1F:24:C6
            X509v3 Authority Key Identifier: 
                keyid:F4:A7:C0:CC:91:46:AF:64:F3:91:F2:27:F8:C8:B2:6F:8A:87:32:73
                DirName:/C=DE/ST=Hessen/O=privacyidea/CN=CA001
                serial:FB:C8:EB:AC:83:CD:12:07

            X509v3 Extended Key Usage: 
                TLS Web Server Authentication
    Signature Algorithm: sha1WithRSAEncryption
         88:9b:9e:5b:fe:f6:63:64:6b:6c:4a:1e:95:a7:47:e7:55:7b:
         aa:07:c0:9e:ff:bd:40:b7:65:3f:43:11:18:01:a5:79:f2:83:
         28:ce:d9:7d:a6:45:e4:67:c8:ab:48:e2:88:0d:16:f5:b0:b9:
         ac:eb:4b:01:06:ba:08:36:a0:20:7c:5f:ca:24:32:c6:9c:40:
         24:64:12:03:1c:06:fd:ce:05:09:36:27:81:3b:5b:af:f8:4f:
         b4:af:2a:ad:b3:16:d3:19:16:30:9c:dc:a1:9e:38:8b:37:dd:
         b5:6d:ea:95:90:ef:a0:25:ad:f0:6a:99:b0:1d:17:da:96:f7:
         51:47:7f:d3:e3:f6:8d:cc:a3:59:e8:c1:ca:45:c4:77:3e:22:
         28:84:06:4e:db:e9:fb:29:81:1e:97:78:92:e1:1e:8f:68:bf:
         7c:a9:0f:46:3e:11:50:a1:4d:5a:22:d3:16:3d:a6:15:3f:d4:
         77:e4:73:1e:9c:d7:66:21:df:5e:3c:c7:e4:b1:17:35:3d:55:
         e2:49:a8:fe:d5:74:64:ed:1a:b1:3a:7c:9a:62:68:81:8b:dd:
         19:97:95:09:b4:70:24:b9:79:25:bf:02:fd:80:44:8a:dc:70:
         ec:63:7a:b2:e6:89:dd:19:b3:71:e5:1e:3e:2c:b4:75:71:85:
         81:49:7e:aa
-----BEGIN CERTIFICATE-----
MIIEDzCCAvegAwIBAgIEEAAAzzANBgkqhkiG9w0BAQUFADBEMQswCQYDVQQGEwJE
RTEPMA0GA1UECAwGSGVzc2VuMRQwEgYDVQQKDAtwcml2YWN5aWRlYTEOMAwGA1UE
AwwFQ0EwMDEwHhcNMTYxMjIyMTgwMjI3WhcNMTcxMjIyMTgwMjI3WjA9MSUwIwYD
VQQDDBxzZWxmc2VydmljZSxDTj11c2VyLE89cmVhbG0xMRQwEgYJKoZIhvcNAQkB
FgVtZWluZTCCASIwDQYJKoZIhvcNAQEBBQADggEPADCCAQoCggEBAM881DMOEsTm
2s22VqEcJrsmHIpKc6hYirYes4uZ0h0HwpKJecBp2MjfKGGYHrP+riu9eKn3bkfc
o6AWjIUCwU6S/XJu8MgDKZu4AG7Ag5XINCA2nLPl5OZ2c6MarUCW4FNUAOx2eZrG
DX62vSnsg/PLiaTLbAC6DMV4D/9puJT0BHBDP9ie16f7Xc51jtrnxAexnd5viEu2
TZrP+bz6n80ybfY6Cw0jQnjsl0K/Dk1gVuHTAvIZy4RXkOVwoaKDNYbi2oaf+YrE
ebNSKNrLuzTK09qRSs+NdqKya5v5lv0JKtoRI03wy9aysQ4SbJoZZZiHyuTuJM5E
rJCPnRvFKp0CAwEAAaOCAQ4wggEKMAsGA1UdDwQEAwIFoDAJBgNVHRMEAjAAMBEG
CWCGSAGG+EIBAQQEAwIGQDAzBglghkgBhvhCAQ0EJhYkT3BlblNTTCBHZW5lcmF0
ZWQgU2VydmVyIENlcnRpZmljYXRlMB0GA1UdDgQWBBRNB5Ct/x0N5xrd1i76ujTL
qh8kxjB0BgNVHSMEbTBrgBT0p8DMkUavZPOR8if4yLJviocyc6FIpEYwRDELMAkG
A1UEBhMCREUxDzANBgNVBAgMBkhlc3NlbjEUMBIGA1UECgwLcHJpdmFjeWlkZWEx
DjAMBgNVBAMMBUNBMDAxggkA+8jrrIPNEgcwEwYDVR0lBAwwCgYIKwYBBQUHAwEw
DQYJKoZIhvcNAQEFBQADggEBAIibnlv+9mNka2xKHpWnR+dVe6oHwJ7/vUC3ZT9D
ERgBpXnygyjO2X2mReRnyKtI4ogNFvWwuazrSwEGugg2oCB8X8okMsacQCRkEgMc
Bv3OBQk2J4E7W6/4T7SvKq2zFtMZFjCc3KGeOIs33bVt6pWQ76AlrfBqmbAdF9qW
91FHf9Pj9o3Mo1nowcpFxHc+IiiEBk7b6fspgR6XeJLhHo9ov3ypD0Y+EVChTVoi
0xY9phU/1Hfkcx6c12Yh3148x+SxFzU9VeJJqP7VdGTtGrE6fJpiaIGL3RmXlQm0
cCS5eSW/Av2ARIrccOxjerLmid0Zs3HlHj4stHVxhYFJfqo=
-----END CERTIFICATE-----
