Certificate:
    Data:
        Version: 3 (0x2)
        Serial Number: 268435659 (0x100000cb)
    Signature Algorithm: sha1WithRSAEncryption
        Issuer: C=DE, ST=Hessen, O=privacyidea, CN=CA001
        Validity
            Not Before: Dec 22 17:49:22 2016 GMT
            Not After : Dec 22 17:49:22 2017 GMT
        Subject: C=DE, ST=Hessen, O=privacyidea, CN=usercert
        Subject Public Key Info:
            Public Key Algorithm: rsaEncryption
                Public-Key: (2048 bit)
                Modulus:
                    00:dc:2f:d1:5f:29:97:d4:7c:c3:53:c8:30:bd:4b:
                    67:70:2c:24:6b:b8:5e:eb:21:7a:48:12:56:7c:81:
                    5c:48:75:b6:68:eb:f6:f2:98:4e:50:51:d1:7f:6c:
                    73:f3:0a:a7:ae:be:48:5e:e5:d6:e1:d9:2a:7c:32:
                    6e:4e:fd:08:f6:5a:54:49:23:73:c3:b9:07:18:d1:
                    ef:b3:ac:f8:8a:dc:94:96:a4:90:3a:8e:74:df:e6:
                    0d:37:1b:bd:5b:b7:25:1a:56:39:da:6f:91:aa:5e:
                    1c:74:f3:f9:7c:14:01:83:12:65:76:c7:bb:fe:36:
                    5b:95:e9:72:65:83:ed:3e:98:30:71:fa:87:dd:a3:
                    36:5a:30:03:2e:26:e0:61:d1:bf:02:3f:b6:06:1f:
                    4a:89:28:1c:5c:a2:ff:4e:be:94:e6:8c:e0:da:82:
                    f1:9d:29:32:48:30:73:b4:04:f6:42:1e:be:f7:e2:
                    32:32:27:3c:9d:89:2f:70:3e:85:9a:6f:5c:c5:09:
                    c0:8c:32:2f:72:22:c9:d2:95:1f:b6:ac:72:60:72:
                    b7:82:4d:6b:ce:5b:e3:00:d0:d2:2f:58:c6:e0:10:
                    e5:51:ca:4d:3b:2e:e6:7e:ab:84:d6:56:f1:93:35:
                    a0:93:64:26:81:75:2f:91:b5:16:06:38:0b:db:cc:
                    2d:07
                Exponent: 65537 (0x10001)
        X509v3 extensions:
            X509v3 Key Usage: 
                Digital Signature, Key Encipherment
            X509v3 Basic Constraints: 
                CA:FALSE
            Netscape Cert Type: 
                SSL Server
            Netscape Comment: 
                OpenSSL Generated Server Certificate
            X509v3 Subject Key Identifier: 
                FC:14:D1:F0:4B:8D:00:90:F2:F5:B8:71:9E:4E:97:C3:92:54:AD:0B
            X509v3 Authority Key Identifier: 
                keyid:F4:A7:C0:CC:91:46:AF:64:F3:91:F2:27:F8:C8:B2:6F:8A:87:32:73
                DirName:/C=DE/ST=Hessen/O=privacyidea/CN=CA001
                serial:FB:C8:EB:AC:83:CD:12:07

            X509v3 Extended Key Usage: 
                TLS Web Server Authentication
    Signature Algorithm: sha1WithRSAEncryption
         4e:68:c6:57:12:7a:24:9a:fc:4e:e5:b3:e6:42:b5:9f:22:35:
         cc:63:97:25:2b:fd:44:c6:eb:b9:34:c5:39:11:7e:85:1d:4b:
         4a:61:48:19:87:49:cc:28:2c:bd:08:cb:62:54:e1:1c:2d:0e:
         1a:9c:ab:96:51:84:0d:7e:63:a0:f7:32:c0:87:f7:57:af:4c:
         ac:03:07:2a:24:24:47:78:44:ac:3e:af:fb:b7:92:eb:06:38:
         63:c9:a2:72:bb:69:b3:58:da:cf:64:04:43:f0:fd:cc:e8:9f:
         69:06:58:c3:fc:6c:c5:7a:8c:d3:db:fd:de:3a:02:8f:a0:63:
         26:30:2b:3c:74:3a:e9:d4:a7:e4:5f:51:12:35:8a:5b:cd:25:
         ff:7d:d9:2a:c2:6a:7f:a4:f6:ca:2b:c8:6f:35:f6:1c:7f:a6:
         4f:5a:aa:d2:e2:a4:f9:1a:17:5f:1f:d2:36:8e:11:e8:f4:9a:
         06:aa:af:48:53:19:87:2a:15:62:6e:c9:1e:33:d9:35:b2:04:
         bc:f1:17:ed:2d:10:3f:ed:6e:e0:0d:86:64:fe:22:26:7b:5c:
         86:53:64:04:3b:fb:de:4e:a8:ea:70:2c:39:4b:32:60:54:a1:
         c7:d0:45:b9:8e:10:06:34:18:01:a4:40:03:7e:fa:fa:ba:17:
         31:f2:18:cf
-----BEGIN CERTIFICATE-----
MIIEGTCCAwGgAwIBAgIEEAAAyzANBgkqhkiG9w0BAQUFADBEMQswCQYDVQQGEwJE
RTEPMA0GA1UECAwGSGVzc2VuMRQwEgYDVQQKDAtwcml2YWN5aWRlYTEOMAwGA1UE
AwwFQ0EwMDEwHhcNMTYxMjIyMTc0OTIyWhcNMTcxMjIyMTc0OTIyWjBHMQswCQYD
VQQGEwJERTEPMA0GA1UECAwGSGVzc2VuMRQwEgYDVQQKDAtwcml2YWN5aWRlYTER
MA8GA1UEAwwIdXNlcmNlcnQwggEiMA0GCSqGSIb3DQEBAQUAA4IBDwAwggEKAoIB
AQDcL9FfKZfUfMNTyDC9S2dwLCRruF7rIXpIElZ8gVxIdbZo6/bymE5QUdF/bHPz
Cqeuvkhe5dbh2Sp8Mm5O/Qj2WlRJI3PDuQcY0e+zrPiK3JSWpJA6jnTf5g03G71b
tyUaVjnab5GqXhx08/l8FAGDEmV2x7v+NluV6XJlg+0+mDBx+ofdozZaMAMuJuBh
0b8CP7YGH0qJKBxcov9OvpTmjODagvGdKTJIMHO0BPZCHr734jIyJzydiS9wPoWa
b1zFCcCMMi9yIsnSlR+2rHJgcreCTWvOW+MA0NIvWMbgEOVRyk07LuZ+q4TWVvGT
NaCTZCaBdS+RtRYGOAvbzC0HAgMBAAGjggEOMIIBCjALBgNVHQ8EBAMCBaAwCQYD
VR0TBAIwADARBglghkgBhvhCAQEEBAMCBkAwMwYJYIZIAYb4QgENBCYWJE9wZW5T
U0wgR2VuZXJhdGVkIFNlcnZlciBDZXJ0aWZpY2F0ZTAdBgNVHQ4EFgQU/BTR8EuN
AJDy9bhxnk6Xw5JUrQswdAYDVR0jBG0wa4AU9KfAzJFGr2TzkfIn+Miyb4qHMnOh
SKRGMEQxCzAJBgNVBAYTAkRFMQ8wDQYDVQQIDAZIZXNzZW4xFDASBgNVBAoMC3By
aXZhY3lpZGVhMQ4wDAYDVQQDDAVDQTAwMYIJAPvI66yDzRIHMBMGA1UdJQQMMAoG
CCsGAQUFBwMBMA0GCSqGSIb3DQEBBQUAA4IBAQBOaMZXEnokmvxO5bPmQrWfIjXM
Y5clK/1Exuu5NMU5EX6FHUtKYUgZh0nMKCy9CMtiVOEcLQ4anKuWUYQNfmOg9zLA
h/dXr0ysAwcqJCRHeESsPq/7t5LrBjhjyaJyu2mzWNrPZARD8P3M6J9pBljD/GzF
eozT2/3eOgKPoGMmMCs8dDrp1KfkX1ESNYpbzSX/fdkqwmp/pPbKK8hvNfYcf6ZP
WqrS4qT5GhdfH9I2jhHo9JoGqq9IUxmHKhVibskeM9k1sgS88RftLRA/7W7gDYZk
/iIme1yGU2QEO/veTqjqcCw5SzJgVKHH0EW5jhAGNBgBpEADfvr6uhcx8hjP
-----END CERTIFICATE-----
