(dp1
V098
p2
VOther non-OR gastrointestinal therapeutic pro
p3
sV099
p4
VOther OR gastrointestinal therapeutic procedu
p5
sV214
p6
VTraction, splints, and other wound care
p7
sV215
p8
VOther physical therapy and rehabilitation
p9
sV212
p10
VDiagnostic physical therapy
p11
sV126
p12
VAbortion (termination of pregnancy)
p13
sV210
p14
VOther radioisotope scan
p15
sV211
p16
VTherapeutic radiology
p17
sV090
p18
VExcision, lysis peritoneal adhesions
p19
sV091
p20
VPeritoneal dialysis
p21
sV092
p22
VOther bowel diagnostic procedures
p23
sV093
p24
VOther non-OR upper GI therapeutic procedures
p25
sV094
p26
VOther OR upper GI therapeutic procedures
p27
sV095
p28
VOther non-OR lower GI therapeutic procedures
p29
sV096
p30
VOther OR lower GI therapeutic procedures
p31
sV097
p32
VOther gastrointestinal diagnostic procedures
p33
sV010
p34
VThyroidectomy, partial or complete
p35
sV011
p36
VDiagnostic endocrine procedures
p37
sV012
p38
VOther therapeutic endocrine procedures
p39
sV013
p40
VCorneal transplant
p41
sV014
p42
VGlaucoma procedures
p43
sV015
p44
VLens and cataract procedures
p45
sV016
p46
VRepair of retinal tear, detachment
p47
sV017
p48
VDestruction of lesion of retina and choroid
p49
sV018
p50
VDiagnostic procedures on eye
p51
sV019
p52
VOther therapeutic procedures on eyelids, conj
p53
sV127
p54
VDilatation and curettage (D&C), aspiration af
p55
sV138
p56
VDiagnostic amniocentesis
p57
sV225
p58
VConversion of cardiac rhythm
p59
sV213
p60
VPhysical therapy exercises, manipulation, and
p61
sV198
p62
VMagnetic resonance imaging
p63
sV250
p64
VNausea and vomiting
p65
sV224
p66
VCancer chemotherapy
p67
sV223
p68
VBirth trauma
p69
sV222
p70
VBlood transfusion
p71
sV253
p72
VAllergic reactions
p73
sV650
p74
VAdjustment disorders
p75
sV221
p76
VNasogastric tube
p77
sV220
p78
VOphthalmologic and otologic diagnosis and tre
p79
sV227
p80
VOther diagnostic procedures (interview, evalu
p81
sV663
p82
VScreening and history of mental health and substance abuse codes
p83
sV670
p84
VMiscellaneous disorders    
p85
sV662
p86
VSuicide and intentional self-inflicted injury
p87
sV025
p88
VDiagnostic procedures on ear
p89
sV024
p90
VMastoidectomy
p91
sV027
p92
VControl of epistaxis
p93
sV026
p94
VOther therapeutic ear procedures
p95
sV021
p96
VOther extraocular muscle and orbit therapeuti
p97
sV020
p98
VOther intraocular therapeutic procedures
p99
sV023
p100
VMyringotomy
p101
sV022
p102
VTympanoplasty
p103
sV128
p104
VDiagnostic dilatation and curettage (D&C)
p105
sV129
p106
VRepair of cystocele and rectocele, obliterati
p107
sV251
p108
VAbdominal pain
p109
sV219
p110
VShort gestation; low birth weight; and fetal growth retardation
p111
sV029
p112
VOral and Dental Services
p113
sV028
p114
VPlastic procedures on nose
p115
sV133
p116
VOther lower respiratory disease
p117
sV132
p118
VOther OR therapeutic procedures, female organ
p119
sV259
p120
VResidual codes; unclassified
p121
sV131
p122
VOther non-OR therapeutic procedures, female o
p123
sV130
p124
VOther diagnostic procedures, female organs
p125
sV216
p126
VRespiratory intubation and mechanical ventila
p127
sV137
p128
VOther procedures to assist delivery
p129
sV136
p130
VDisorders of teeth and jaw
p131
sV201
p132
VCardiac stress tests
p133
sV199
p134
VElectroencephalogram (EEG)
p135
sV135
p136
VForceps, vacuum, and breech delivery
p137
sV200
p138
VNonoperative urinary system measurements
p139
sV195
p140
VDiagnostic ultrasound of urinary tract
p141
sV194
p142
VDiagnostic ultrasound of gastrointestinal tra
p143
sV197
p144
VOther diagnostic ultrasound
p145
sV134
p146
VCesarean section
p147
sV191
p148
VArterio- or venogram (not heart and head)
p149
sV144
p150
VTreatment, facial fracture or dislocation
p151
sV193
p152
VDiagnostic ultrasound of heart (echocardiogra
p153
sV192
p154
VDiagnostic ultrasound of head and neck
p155
sV115
p156
VCircumcision
p157
sV114
p158
VOpen prostatectomy
p159
sV038
p160
VOther diagnostic procedures on lung and bronc
p161
sV039
p162
VIncision of pleura, thoracentesis, chest drai
p163
sV111
p164
VOther non-OR therapeutic procedures of urinar
p165
sV110
p166
VOther diagnostic procedures of urinary tract
p167
sV113
p168
VTransurethral resection of prostate (TURP)
p169
sV112
p170
VOther OR therapeutic procedures of urinary tr
p171
sV032
p172
VOther non-OR therapeutic procedures on nose,
p173
sV033
p174
VOther OR therapeutic procedures on nose, mout
p175
sV030
p176
VTonsillectomy and/or adenoidectomy
p177
sV031
p178
VDiagnostic procedures on nose, mouth and phar
p179
sV036
p180
VLobectomy or pneumonectomy
p181
sV037
p182
VDiagnostic bronchoscopy and biopsy of bronchu
p183
sV034
p184
VTracheostomy, temporary and permanent
p185
sV035
p186
VTracheoscopy and laryngoscopy with biopsy
p187
sV174
p188
VOther non-OR therapeutic procedures on skin a
p189
sV207
p190
VRadioisotope bone scan
p191
sV173
p192
VOther diagnostic procedures on skin and subcu
p193
sV260
p194
VE Codes: All (external causes of injury and poisoning)
p195
sV206
p196
VMicroscopic examination (bacterial smear, cul
p197
sV226
p198
VOther diagnostic radiology and related techni
p199
sV172
p200
VSkin graft
p201
sV217
p202
VOther respiratory therapy
p203
sV209
p204
VRadioisotope scan and function studies
p205
sV255
p206
VAdministrative/social admission
p207
sV171
p208
VSuture of skin and subcutaneous tissue
p209
sV208
p210
VRadioisotope pulmonary scan
p211
sV170
p212
VExcision of skin lesion
p213
sV653
p214
VDelirium, dementia, and amnestic and other cognitive disorders
p215
sV658
p216
VPersonality disorders
p217
sV178
p218
VCT scan chest
p219
sV244
p220
VGastric bypass and volume reduction
p221
sV108
p222
VIndwelling catheter
p223
sV109
p224
VProcedures on the urethra
p225
sV196
p226
VDiagnostic ultrasound of abdomen or retroperi
p227
sV148
p228
VOther fracture and dislocation procedure
p229
sV049
p230
VOther OR heart procedures
p231
sV048
p232
VInsertion, revision, replacement, removal of
p233
sV047
p234
VDiagnostic cardiac catheterization, coronary
p235
sV046
p236
VCoronary thrombolysis
p237
sV045
p238
VPercutaneous transluminal coronary angioplast
p239
sV044
p240
VCoronary artery bypass graft (CABG)
p241
sV043
p242
VHeart valve procedures
p243
sV042
p244
VOther OR therapeutic procedures on respirator
p245
sV041
p246
VOther non-OR therapeutic procedures on respir
p247
sV040
p248
VOther diagnostic procedures of respiratory tr
p249
sV245
p250
VSyncope
p251
sV139
p252
VFetal monitoring
p253
sV257
p254
VOther aftercare
p255
sV247
p256
VLymphadenitis
p257
sV177
p258
VComputerized axial tomography (CT) scan head
p259
sV246
p260
VFever of unknown origin
p261
sV241
p262
VPoisoning by psychotropic agents
p263
sV252
p264
VMalaise and fatigue
p265
sV240
p266
VBurns
p267
sV151
p268
VExcision of semilunar cartilage of knee
p269
sV243
p270
VDME and supplies
p271
sV150
p272
VDivision of joint capsule, ligament or cartil
p273
sV242
p274
VPoisoning by other medications and drugs
p275
sV176
p276
VOther organ transplantation
p277
sV153
p278
VHip replacement, total and partial
p279
sV102
p280
VUreteral catheterization
p281
sV258
p282
VOther screening for suspected conditions (not mental disorders or infectious disease)
p283
sV152
p284
VArthroplasty knee
p285
sV058
p286
VHemodialysis
p287
sV059
p288
VOther OR procedures on vessels of head and ne
p289
sV179
p290
VCT scan abdomen
p291
sV103
p292
VNephrotomy and nephrostomy
p293
sV054
p294
VOther vascular catheterization, not heart
p295
sV055
p296
VPeripheral vascular bypass
p297
sV056
p298
VOther vascular bypass and shunt, not heart
p299
sV057
p300
VCreation, revision and removal of arterioveno
p301
sV050
p302
VExtracorporeal circulation auxiliary to open
p303
sV051
p304
VEndarterectomy, vessel of head and neck
p305
sV052
p306
VAortic resection, replacement or anastomosis
p307
sV053
p308
VVaricose vein stripping, lower limb
p309
sV203
p310
VElectrographic cardiac monitoring
p311
sV656
p312
VImpulse control disorders, NEC
p313
sV101
p314
VTransurethral excision, drainage, or removal
p315
sV157
p316
VAmputation of lower extremity
p317
sV657
p318
VMood disorders
p319
sV248
p320
VGangrene
p321
sV106
p322
VGenitourinary incontinence procedures
p323
sV175
p324
VOther OR therapeutic procedures on skin and b
p325
sV156
p326
VInjections and aspirations of muscles, tendon
p327
sV654
p328
VDevelopmental disorders
p329
sV145
p330
VTreatment, fracture or dislocation of radius
p331
sV107
p332
VExtracorporeal lithotripsy, urinary
p333
sV182
p334
VMammography
p335
sV183
p336
VRoutine chest X-ray
p337
sV180
p338
VOther CT scan
p339
sV181
p340
VMyelogram
p341
sV186
p342
VLower gastrointestinal X-ray
p343
sV104
p344
VNephrectomy, partial or complete
p345
sV184
p346
VIntraoperative cholangiogram
p347
sV185
p348
VUpper gastrointestinal X-ray
p349
sV652
p350
VAttention-deficit, conduct, and disruptive behavior disorders
p351
sV188
p352
VCerebral arteriogram
p353
sV105
p354
VKidney transplant
p355
sV202
p356
VElectrocardiogram
p357
sV187
p358
VIntravenous pyelogram
p359
sV061
p360
VOther OR procedures on vessels other than hea
p361
sV060
p362
VEmbolectomy and endarterectomy of lower limbs
p363
sV063
p364
VOther non-OR therapeutic cardiovascular proce
p365
sV062
p366
VOther diagnostic cardiovascular procedures
p367
sV065
p368
VBone marrow biopsy
p369
sV064
p370
VBone marrow transplant
p371
sV067
p372
VOther therapeutic procedures, hemic and lymph
p373
sV066
p374
VProcedures on spleen
p375
sV069
p376
VEsophageal dilatation
p377
sV068
p378
VInjection or ligation of esophageal varices
p379
sV661
p380
VSubstance-related disorders
p381
sV651
p382
VAnxiety disorders
p383
sV190
p384
VContrast arteriogram of femoral and lower ext
p385
sV168
p386
VIncision and drainage, skin and subcutaneous
p387
sV169
p388
VDebridement of wound, infection or burn
p389
sV229
p390
VNonoperative removal of foreign body
p391
sV228
p392
VProphylactic vaccinations and inoculations
p393
sV164
p394
VOther OR therapeutic procedures on musculoske
p395
sV165
p396
VBreast biopsy and other diagnostic procedures
p397
sV166
p398
VLumpectomy, quadrantectomy of breast
p399
sV167
p400
VMastectomy
p401
sV160
p402
VOther therapeutic procedures on muscles and t
p403
sV161
p404
VOther OR therapeutic procedures on bone
p405
sV162
p406
VOther OR therapeutic procedures on joints
p407
sV163
p408
VOther non-OR therapeutic procedures on muscul
p409
sV189
p410
VContrast aortogram
p411
sV218
p412
VPsychological and psychiatric evaluation and
p413
sV660
p414
VAlcohol-related disorders
p415
sV117
p416
VOther non-OR therapeutic procedures, male gen
p417
sV116
p418
VDiagnostic procedures, male genital
p419
sV261
p420
Ve codes: transport- not mvt
p421
sV256
p422
VMedical examination/evaluation
p423
sV204
p424
VSwan-Ganz catheterization for monitoring
p425
sV659
p426
VSchizophrenia and other psychotic disorders
p427
sV262
p428
VE Codes: Unspecified
p429
sV076
p430
VColonoscopy and biopsy
p431
sV077
p432
VProctoscopy and anorectal biopsy
p433
sV074
p434
VGastrectomy, partial and total
p435
sV075
p436
VSmall bowel resection
p437
sV072
p438
VColostomy, temporary and permanent
p439
sV073
p440
VIleostomy and other enterostomy
p441
sV070
p442
VUpper gastrointestinal endoscopy, biopsy
p443
sV071
p444
VGastrostomy, temporary and permanent
p445
sV159
p446
VOther diagnostic procedures on musculoskeleta
p447
sV158
p448
VSpinal fusion
p449
sV078
p450
VColorectal resection
p451
sV079
p452
VLocal excision of large intestine lesion (not
p453
sV234
p454
VPathology
p455
sV238
p456
VComplications of surgical procedures or medical care
p457
sV239
p458
VSuperficial injury; contusion
p459
sV100
p460
VEndoscopy and endoscopic biopsy of the urinar
p461
sV235
p462
VOther Laboratory
p463
sV236
p464
VHome Health Services
p465
sV237
p466
VAncillary Services
p467
sV230
p468
VExtracorporeal shock wave, other than urinary
p469
sV231
p470
VOther therapeutic procedures
p471
sV232
p472
VAnesthesia
p473
sV233
p474
VLaboratory - Chemistry and Hematology
p475
sV149
p476
VArthroscopy
p477
sV119
p478
VOophorectomy, unilateral and bilateral
p479
sV118
p480
VOther OR therapeutic procedures, male genital
p481
sV254
p482
VRehabilitation care; fitting of prostheses; and adjustment of devices
p483
sV155
p484
VArthrocentesis
p485
sV146
p486
VTreatment, fracture or dislocation of hip and
p487
sV147
p488
VTreatment, fracture or dislocation of lower e
p489
sV089
p490
VExploratory laparotomy
p491
sV088
p492
VAbdominal paracentesis
p493
sV142
p494
VPartial excision bone
p495
sV143
p496
VBunionectomy or repair of toe deformities
p497
sV140
p498
VRepair of current obstetric laceration
p499
sV141
p500
VOther therapeutic obstetrical procedures
p501
sV083
p502
VBiopsy of liver
p503
sV082
p504
VEndoscopic retrograde cannulation of pancreas
p505
sV081
p506
VHemorrhoid procedures
p507
sV080
p508
VAppendectomy
p509
sV087
p510
VLaparoscopy
p511
sV086
p512
VOther hernia repair
p513
sV085
p514
VInguinal and femoral hernia repair
p515
sV084
p516
VCholecystectomy and common duct exploration
p517
sV003
p518
VLaminectomy, excision intervertebral disc
p519
sV002
p520
VInsertion, replacement, or removal of extracr
p521
sV001
p522
VIncision and excision of CNS
p523
sV000
p524
VUngrouped
p525
sV007
p526
VOther diagnostic nervous system procedures
p527
sV006
p528
VDecompression peripheral nerve
p529
sV005
p530
VInsertion of catheter or spinal stimulator an
p531
sV004
p532
VDiagnostic spinal tap
p533
sV154
p534
VArthroplasty other than hip or knee
p535
sV655
p536
VDisorders usually diagnosed in infancy, childhood, or adolescence
p537
sV009
p538
VOther OR therapeutic nervous system procedure
p539
sV008
p540
VOther non-OR or closed therapeutic nervous sy
p541
sV205
p542
VArterial blood gases
p543
sV120
p544
VOther operations on ovary
p545
sV249
p546
VShock
p547
sV121
p548
VLigation of fallopian tubes
p549
sV122
p550
VRemoval of ectopic pregnancy
p551
sV123
p552
VOther operations on fallopian tubes
p553
sV124
p554
VHysterectomy, abdominal and vaginal
p555
sV125
p556
VOther excision of cervix and uterus
p557
s.