Certificate:
    Data:
        Version: 3 (0x2)
        Serial Number: 268435685 (0x100000e5)
    Signature Algorithm: sha1WithRSAEncryption
        Issuer: C=DE, ST=Hessen, O=privacyidea, CN=CA001
        Validity
            Not Before: Sep 30 16:51:01 2016 GMT
            Not After : Sep 30 16:51:01 2017 GMT
        Subject: OU=realm1, CN=cornelius/emailAddress=user@localhost.localdomain
        Subject Public Key Info:
            Public Key Algorithm: rsaEncryption
                Public-Key: (2048 bit)
                Modulus:
                    00:ca:a1:f6:a6:de:8c:00:1c:29:ce:b5:fc:85:8a:
                    61:e5:15:7d:fb:49:75:81:1e:e9:79:cb:06:6f:47:
                    0c:61:e8:c2:ce:90:fa:ba:0e:36:7c:f3:45:ed:1b:
                    e7:08:8d:da:e3:8b:07:c6:f8:d2:10:41:62:dc:af:
                    dd:f0:77:08:bc:73:83:1a:c3:da:4c:0a:5f:03:29:
                    6f:0d:13:81:e0:d3:29:6b:57:01:12:f9:6e:ed:0c:
                    89:02:5a:b5:78:3d:1b:e7:21:8a:24:7c:77:57:14:
                    a5:a9:10:7f:a9:18:30:ac:0e:ae:01:f2:6d:c4:cb:
                    5c:b8:ff:69:2a:2d:29:a4:7e:92:2b:ca:4a:e0:59:
                    da:6f:40:76:ff:c4:2a:a7:58:0d:a1:50:3f:e9:b9:
                    ee:25:20:ea:6d:69:ed:b9:32:02:c2:16:37:a1:b9:
                    90:59:6c:b3:06:7f:80:9d:31:34:79:43:dd:e1:f2:
                    22:a6:fe:a6:2c:b2:2a:5c:c0:b1:53:d8:2b:fa:35:
                    71:70:99:d7:0f:ff:f1:30:1e:d6:d4:c8:62:29:5d:
                    84:ac:ce:a2:bf:da:10:fc:8c:04:8f:c3:aa:be:31:
                    6d:35:7d:e9:d6:cb:38:7b:50:3d:ed:14:60:cb:7d:
                    6f:9e:c2:24:7a:ee:3e:8f:66:9d:40:c3:d5:43:7c:
                    29:97
                Exponent: 65537 (0x10001)
        X509v3 extensions:
            X509v3 Key Usage: 
                Digital Signature, Key Encipherment
            X509v3 Basic Constraints: 
                CA:FALSE
            Netscape Cert Type: 
                SSL Server
            Netscape Comment: 
                OpenSSL Generated Server Certificate
            X509v3 Subject Key Identifier: 
                5E:FC:D4:3F:F8:FD:27:72:5C:5E:F5:25:52:CA:E1:A4:69:81:D9:C5
            X509v3 Authority Key Identifier: 
                keyid:F4:A7:C0:CC:91:46:AF:64:F3:91:F2:27:F8:C8:B2:6F:8A:87:32:73
                DirName:/C=DE/ST=Hessen/O=privacyidea/CN=CA001
                serial:FB:C8:EB:AC:83:CD:12:07

            X509v3 Extended Key Usage: 
                TLS Web Server Authentication
    Signature Algorithm: sha1WithRSAEncryption
         0b:f6:e1:2d:4a:fe:4b:ea:d9:40:fe:bc:ed:c0:97:6a:e4:8c:
         8f:01:fd:88:7c:99:7f:bd:71:d4:57:af:0f:0e:29:30:a7:8c:
         79:5c:90:4a:52:de:1c:e4:3d:e6:09:87:fa:a1:b7:cb:3d:cd:
         02:7d:20:4d:c6:78:17:e1:98:bd:fc:ac:35:dc:a7:57:4e:7a:
         53:f8:e4:72:4e:2f:d3:61:61:df:33:f0:79:11:e1:af:c4:36:
         bc:ac:b3:e9:a3:e8:bd:a6:f6:42:7e:17:17:18:04:b9:0c:e7:
         ae:e8:28:7d:5b:7e:b5:85:89:e6:6f:ca:ee:1a:8f:b4:c2:db:
         65:fc:43:5d:8f:6e:22:20:df:e7:23:64:da:7d:5d:5c:31:32:
         5a:2a:72:6a:cd:28:37:4a:42:b7:fd:4a:9b:52:bf:d1:84:85:
         78:a5:a6:f0:c8:81:44:36:49:8c:34:33:77:23:13:a5:43:44:
         f0:9a:55:22:9b:72:6b:b9:be:1e:37:87:85:e3:fa:60:9c:07:
         a5:c4:fd:ab:f8:01:7d:c4:da:fc:f2:0b:af:c2:15:c7:64:83:
         a3:59:ef:9e:80:cc:a3:1b:89:ee:44:2f:1f:85:df:c8:29:88:
         38:67:81:2b:de:85:2d:b3:cd:4a:13:8a:ef:66:21:62:5f:54:
         d5:ff:19:0b
-----BEGIN CERTIFICATE-----
MIIEIjCCAwqgAwIBAgIEEAAA5TANBgkqhkiG9w0BAQUFADBEMQswCQYDVQQGEwJE
RTEPMA0GA1UECAwGSGVzc2VuMRQwEgYDVQQKDAtwcml2YWN5aWRlYTEOMAwGA1UE
AwwFQ0EwMDEwHhcNMTYwOTMwMTY1MTAxWhcNMTcwOTMwMTY1MTAxWjBQMQ8wDQYD
VQQLDAZyZWFsbTExEjAQBgNVBAMMCWNvcm5lbGl1czEpMCcGCSqGSIb3DQEJARYa
dXNlckBsb2NhbGhvc3QubG9jYWxkb21haW4wggEiMA0GCSqGSIb3DQEBAQUAA4IB
DwAwggEKAoIBAQDKofam3owAHCnOtfyFimHlFX37SXWBHul5ywZvRwxh6MLOkPq6
DjZ880XtG+cIjdrjiwfG+NIQQWLcr93wdwi8c4Maw9pMCl8DKW8NE4Hg0ylrVwES
+W7tDIkCWrV4PRvnIYokfHdXFKWpEH+pGDCsDq4B8m3Ey1y4/2kqLSmkfpIrykrg
WdpvQHb/xCqnWA2hUD/pue4lIOptae25MgLCFjehuZBZbLMGf4CdMTR5Q93h8iKm
/qYssipcwLFT2Cv6NXFwmdcP//EwHtbUyGIpXYSszqK/2hD8jASPw6q+MW01fenW
yzh7UD3tFGDLfW+ewiR67j6PZp1Aw9VDfCmXAgMBAAGjggEOMIIBCjALBgNVHQ8E
BAMCBaAwCQYDVR0TBAIwADARBglghkgBhvhCAQEEBAMCBkAwMwYJYIZIAYb4QgEN
BCYWJE9wZW5TU0wgR2VuZXJhdGVkIFNlcnZlciBDZXJ0aWZpY2F0ZTAdBgNVHQ4E
FgQUXvzUP/j9J3JcXvUlUsrhpGmB2cUwdAYDVR0jBG0wa4AU9KfAzJFGr2TzkfIn
+Miyb4qHMnOhSKRGMEQxCzAJBgNVBAYTAkRFMQ8wDQYDVQQIDAZIZXNzZW4xFDAS
BgNVBAoMC3ByaXZhY3lpZGVhMQ4wDAYDVQQDDAVDQTAwMYIJAPvI66yDzRIHMBMG
A1UdJQQMMAoGCCsGAQUFBwMBMA0GCSqGSIb3DQEBBQUAA4IBAQAL9uEtSv5L6tlA
/rztwJdq5IyPAf2IfJl/vXHUV68PDikwp4x5XJBKUt4c5D3mCYf6obfLPc0CfSBN
xngX4Zi9/Kw13KdXTnpT+ORyTi/TYWHfM/B5EeGvxDa8rLPpo+i9pvZCfhcXGAS5
DOeu6Ch9W361hYnmb8ruGo+0wttl/ENdj24iIN/nI2TafV1cMTJaKnJqzSg3SkK3
/UqbUr/RhIV4pabwyIFENkmMNDN3IxOlQ0TwmlUim3Jrub4eN4eF4/pgnAelxP2r
+AF9xNr88guvwhXHZIOjWe+egMyjG4nuRC8fhd/IKYg4Z4Er3oUts81KE4rvZiFi
X1TV/xkL
-----END CERTIFICATE-----
