Certificate:
    Data:
        Version: 3 (0x2)
        Serial Number: 268435670 (0x100000d6)
    Signature Algorithm: sha1WithRSAEncryption
        Issuer: C=DE, ST=Hessen, O=privacyidea, CN=CA001
        Validity
            Not Before: Dec  5 13:34:38 2016 GMT
            Not After : Dec  5 13:34:38 2017 GMT
        Subject: C=DE, ST=Hessen, O=privacyidea, CN=usercert
        Subject Public Key Info:
            Public Key Algorithm: rsaEncryption
                Public-Key: (2048 bit)
                Modulus:
                    00:dc:2f:d1:5f:29:97:d4:7c:c3:53:c8:30:bd:4b:
                    67:70:2c:24:6b:b8:5e:eb:21:7a:48:12:56:7c:81:
                    5c:48:75:b6:68:eb:f6:f2:98:4e:50:51:d1:7f:6c:
                    73:f3:0a:a7:ae:be:48:5e:e5:d6:e1:d9:2a:7c:32:
                    6e:4e:fd:08:f6:5a:54:49:23:73:c3:b9:07:18:d1:
                    ef:b3:ac:f8:8a:dc:94:96:a4:90:3a:8e:74:df:e6:
                    0d:37:1b:bd:5b:b7:25:1a:56:39:da:6f:91:aa:5e:
                    1c:74:f3:f9:7c:14:01:83:12:65:76:c7:bb:fe:36:
                    5b:95:e9:72:65:83:ed:3e:98:30:71:fa:87:dd:a3:
                    36:5a:30:03:2e:26:e0:61:d1:bf:02:3f:b6:06:1f:
                    4a:89:28:1c:5c:a2:ff:4e:be:94:e6:8c:e0:da:82:
                    f1:9d:29:32:48:30:73:b4:04:f6:42:1e:be:f7:e2:
                    32:32:27:3c:9d:89:2f:70:3e:85:9a:6f:5c:c5:09:
                    c0:8c:32:2f:72:22:c9:d2:95:1f:b6:ac:72:60:72:
                    b7:82:4d:6b:ce:5b:e3:00:d0:d2:2f:58:c6:e0:10:
                    e5:51:ca:4d:3b:2e:e6:7e:ab:84:d6:56:f1:93:35:
                    a0:93:64:26:81:75:2f:91:b5:16:06:38:0b:db:cc:
                    2d:07
                Exponent: 65537 (0x10001)
        X509v3 extensions:
            X509v3 Key Usage: 
                Digital Signature, Key Encipherment
            X509v3 Basic Constraints: 
                CA:FALSE
            Netscape Cert Type: 
                SSL Server
            Netscape Comment: 
                OpenSSL Generated Server Certificate
            X509v3 Subject Key Identifier: 
                FC:14:D1:F0:4B:8D:00:90:F2:F5:B8:71:9E:4E:97:C3:92:54:AD:0B
            X509v3 Authority Key Identifier: 
                keyid:F4:A7:C0:CC:91:46:AF:64:F3:91:F2:27:F8:C8:B2:6F:8A:87:32:73
                DirName:/C=DE/ST=Hessen/O=privacyidea/CN=CA001
                serial:FB:C8:EB:AC:83:CD:12:07

            X509v3 Extended Key Usage: 
                TLS Web Server Authentication
    Signature Algorithm: sha1WithRSAEncryption
         8a:18:d3:38:58:f7:a1:6d:bc:b1:f2:00:5f:7b:33:df:34:60:
         f9:97:ee:ad:a2:eb:f1:2c:44:e7:8b:43:ca:44:a0:89:c9:99:
         a5:71:78:2b:2a:a0:49:f0:86:15:f5:28:35:6e:18:05:9e:fb:
         49:af:8e:5e:4a:4f:07:59:ac:18:f2:2b:80:a0:1e:bd:10:74:
         2f:d5:47:9e:98:cd:52:c8:61:9e:52:bd:86:8d:96:ac:29:4f:
         d1:4f:4c:a8:8d:2f:32:bd:60:00:85:2d:4b:32:77:63:d4:ce:
         07:17:ff:52:56:e9:78:56:17:ab:c8:9f:e8:e3:75:34:98:ef:
         ee:4e:ef:73:ee:b7:9e:f0:77:e1:f4:4e:df:9a:38:d0:0f:bd:
         f6:8c:dd:32:23:06:7e:89:f0:76:38:d6:3f:ad:e9:43:62:db:
         09:7f:82:31:ec:5b:56:fd:e0:ee:4b:25:d0:7a:4a:82:a7:61:
         8a:a5:e0:4c:25:ea:c1:0d:e7:6f:d4:66:14:3f:55:eb:02:9c:
         f7:98:da:75:f6:a3:9c:9e:f5:c1:79:5d:82:53:8b:34:5f:9b:
         db:1e:76:c9:e2:d3:b8:14:a1:cf:4c:ff:50:31:16:dc:26:f5:
         df:a3:22:44:d3:a6:51:18:17:92:68:05:5f:28:45:dc:d3:70:
         0d:ad:a4:8c
-----BEGIN CERTIFICATE-----
MIIEGTCCAwGgAwIBAgIEEAAA1jANBgkqhkiG9w0BAQUFADBEMQswCQYDVQQGEwJE
RTEPMA0GA1UECAwGSGVzc2VuMRQwEgYDVQQKDAtwcml2YWN5aWRlYTEOMAwGA1UE
AwwFQ0EwMDEwHhcNMTYxMjA1MTMzNDM4WhcNMTcxMjA1MTMzNDM4WjBHMQswCQYD
VQQGEwJERTEPMA0GA1UECAwGSGVzc2VuMRQwEgYDVQQKDAtwcml2YWN5aWRlYTER
MA8GA1UEAwwIdXNlcmNlcnQwggEiMA0GCSqGSIb3DQEBAQUAA4IBDwAwggEKAoIB
AQDcL9FfKZfUfMNTyDC9S2dwLCRruF7rIXpIElZ8gVxIdbZo6/bymE5QUdF/bHPz
Cqeuvkhe5dbh2Sp8Mm5O/Qj2WlRJI3PDuQcY0e+zrPiK3JSWpJA6jnTf5g03G71b
tyUaVjnab5GqXhx08/l8FAGDEmV2x7v+NluV6XJlg+0+mDBx+ofdozZaMAMuJuBh
0b8CP7YGH0qJKBxcov9OvpTmjODagvGdKTJIMHO0BPZCHr734jIyJzydiS9wPoWa
b1zFCcCMMi9yIsnSlR+2rHJgcreCTWvOW+MA0NIvWMbgEOVRyk07LuZ+q4TWVvGT
NaCTZCaBdS+RtRYGOAvbzC0HAgMBAAGjggEOMIIBCjALBgNVHQ8EBAMCBaAwCQYD
VR0TBAIwADARBglghkgBhvhCAQEEBAMCBkAwMwYJYIZIAYb4QgENBCYWJE9wZW5T
U0wgR2VuZXJhdGVkIFNlcnZlciBDZXJ0aWZpY2F0ZTAdBgNVHQ4EFgQU/BTR8EuN
AJDy9bhxnk6Xw5JUrQswdAYDVR0jBG0wa4AU9KfAzJFGr2TzkfIn+Miyb4qHMnOh
SKRGMEQxCzAJBgNVBAYTAkRFMQ8wDQYDVQQIDAZIZXNzZW4xFDASBgNVBAoMC3By
aXZhY3lpZGVhMQ4wDAYDVQQDDAVDQTAwMYIJAPvI66yDzRIHMBMGA1UdJQQMMAoG
CCsGAQUFBwMBMA0GCSqGSIb3DQEBBQUAA4IBAQCKGNM4WPehbbyx8gBfezPfNGD5
l+6touvxLETni0PKRKCJyZmlcXgrKqBJ8IYV9Sg1bhgFnvtJr45eSk8HWawY8iuA
oB69EHQv1UeemM1SyGGeUr2GjZasKU/RT0yojS8yvWAAhS1LMndj1M4HF/9SVul4
VheryJ/o43U0mO/uTu9z7ree8Hfh9E7fmjjQD732jN0yIwZ+ifB2ONY/relDYtsJ
f4Ix7FtW/eDuSyXQekqCp2GKpeBMJerBDedv1GYUP1XrApz3mNp19qOcnvXBeV2C
U4s0X5vbHnbJ4tO4FKHPTP9QMRbcJvXfoyJE06ZRGBeSaAVfKEXc03ANraSM
-----END CERTIFICATE-----
