Certificate:
    Data:
        Version: 3 (0x2)
        Serial Number: 268435704 (0x100000f8)
    Signature Algorithm: sha1WithRSAEncryption
        Issuer: C=DE, ST=Hessen, O=privacyidea, CN=CA001
        Validity
            Not Before: Sep 27 20:20:08 2016 GMT
            Not After : Sep 27 20:20:08 2017 GMT
        Subject: OU=realm1, CN=cornelius/emailAddress=user@localhost.localdomain
        Subject Public Key Info:
            Public Key Algorithm: rsaEncryption
                Public-Key: (2048 bit)
                Modulus:
                    00:cb:3e:c8:be:37:75:4b:a6:b4:c5:02:a5:15:33:
                    dd:56:f4:7d:7e:d0:a0:30:a6:23:b0:d3:03:57:cd:
                    1e:e1:ef:63:7a:98:0a:dd:c9:ee:40:a6:c3:f5:5a:
                    53:ec:61:5a:fe:13:9a:7d:0e:87:8c:24:59:f9:39:
                    08:c4:a0:d7:a8:7f:3f:f0:cf:45:e9:ea:a9:8a:36:
                    8c:06:76:93:ac:95:40:6a:c3:3a:ed:ee:b9:d9:70:
                    1a:16:ca:34:ea:44:84:8b:16:29:83:f1:5d:ef:50:
                    38:f1:78:7e:97:4d:17:0c:69:f5:7f:e1:7e:ab:af:
                    3b:01:ab:98:5f:e0:23:c0:b7:69:cd:07:c4:c9:ea:
                    2a:76:dd:2d:e6:33:49:70:52:12:b6:3b:0a:0c:d5:
                    07:dd:4d:aa:db:80:f5:43:62:e0:52:49:28:86:e0:
                    d6:ab:97:6c:f9:2e:4b:8f:96:b3:ed:2c:53:f5:c2:
                    2e:86:03:95:09:70:16:20:6a:10:2a:fb:79:85:34:
                    29:32:12:8d:80:d3:ed:1c:82:0e:09:5d:1e:57:5a:
                    2f:a9:75:aa:88:72:dc:cb:2a:13:95:37:bc:08:dd:
                    a5:41:b7:4c:38:52:47:f5:a2:76:68:c0:4e:a0:b9:
                    34:d3:83:24:ab:6b:15:56:74:2b:91:ba:6d:2e:fa:
                    0f:c3
                Exponent: 65537 (0x10001)
        X509v3 extensions:
            X509v3 Key Usage: 
                Digital Signature, Key Encipherment
            X509v3 Basic Constraints: 
                CA:FALSE
            Netscape Cert Type: 
                SSL Server
            Netscape Comment: 
                OpenSSL Generated Server Certificate
            X509v3 Subject Key Identifier: 
                1F:72:60:58:C3:68:CF:2B:30:5B:31:17:A6:F4:61:EB:75:B9:1B:A2
            X509v3 Authority Key Identifier: 
                keyid:F4:A7:C0:CC:91:46:AF:64:F3:91:F2:27:F8:C8:B2:6F:8A:87:32:73
                DirName:/C=DE/ST=Hessen/O=privacyidea/CN=CA001
                serial:FB:C8:EB:AC:83:CD:12:07

            X509v3 Extended Key Usage: 
                TLS Web Server Authentication
    Signature Algorithm: sha1WithRSAEncryption
         15:59:dd:b0:4a:ac:f2:38:57:29:22:e2:3c:bd:09:c3:b2:16:
         4d:17:7e:66:69:23:66:b6:66:98:25:67:92:09:fa:f6:03:18:
         9a:0c:a1:e2:1d:f1:c8:61:c8:39:52:d7:5f:55:4c:76:0f:ea:
         fb:fd:d9:6e:fd:f9:2c:29:db:99:41:0a:0d:4a:fc:88:e6:9a:
         38:fc:79:c9:a3:87:ea:97:24:16:58:bb:15:0e:52:ef:2a:51:
         e7:86:4a:3b:18:35:e7:5c:90:29:16:4e:55:64:82:bf:3d:40:
         23:d2:34:07:e8:47:c9:62:a0:99:bd:43:6b:bf:b9:d6:8b:69:
         6d:c9:a2:6f:79:1a:2b:d3:b2:ca:91:50:db:1f:21:c9:0c:27:
         ad:41:db:ef:b4:a9:3c:bb:ba:ed:f2:83:7b:af:7f:0b:e4:48:
         b6:52:2f:16:02:da:31:f2:bf:24:16:0d:08:80:2c:db:57:39:
         58:6b:06:7b:6b:dc:6d:d8:52:e5:23:39:4e:cb:8a:a3:50:7f:
         f5:3f:4d:45:0c:6c:3f:b8:34:4f:ee:47:f9:a4:03:56:9b:94:
         9c:7b:6a:3e:48:b4:be:ca:b0:8d:52:d2:9e:b4:0a:29:4e:c2:
         ac:14:43:a2:89:dd:68:e5:1f:f2:76:b4:9c:09:45:63:01:b2:
         81:ae:ab:ab
-----BEGIN CERTIFICATE-----
MIIEIjCCAwqgAwIBAgIEEAAA+DANBgkqhkiG9w0BAQUFADBEMQswCQYDVQQGEwJE
RTEPMA0GA1UECAwGSGVzc2VuMRQwEgYDVQQKDAtwcml2YWN5aWRlYTEOMAwGA1UE
AwwFQ0EwMDEwHhcNMTYwOTI3MjAyMDA4WhcNMTcwOTI3MjAyMDA4WjBQMQ8wDQYD
VQQLDAZyZWFsbTExEjAQBgNVBAMMCWNvcm5lbGl1czEpMCcGCSqGSIb3DQEJARYa
dXNlckBsb2NhbGhvc3QubG9jYWxkb21haW4wggEiMA0GCSqGSIb3DQEBAQUAA4IB
DwAwggEKAoIBAQDLPsi+N3VLprTFAqUVM91W9H1+0KAwpiOw0wNXzR7h72N6mArd
ye5ApsP1WlPsYVr+E5p9DoeMJFn5OQjEoNeofz/wz0Xp6qmKNowGdpOslUBqwzrt
7rnZcBoWyjTqRISLFimD8V3vUDjxeH6XTRcMafV/4X6rrzsBq5hf4CPAt2nNB8TJ
6ip23S3mM0lwUhK2OwoM1QfdTarbgPVDYuBSSSiG4Narl2z5LkuPlrPtLFP1wi6G
A5UJcBYgahAq+3mFNCkyEo2A0+0cgg4JXR5XWi+pdaqIctzLKhOVN7wI3aVBt0w4
Ukf1onZowE6guTTTgySraxVWdCuRum0u+g/DAgMBAAGjggEOMIIBCjALBgNVHQ8E
BAMCBaAwCQYDVR0TBAIwADARBglghkgBhvhCAQEEBAMCBkAwMwYJYIZIAYb4QgEN
BCYWJE9wZW5TU0wgR2VuZXJhdGVkIFNlcnZlciBDZXJ0aWZpY2F0ZTAdBgNVHQ4E
FgQUH3JgWMNozyswWzEXpvRh63W5G6IwdAYDVR0jBG0wa4AU9KfAzJFGr2TzkfIn
+Miyb4qHMnOhSKRGMEQxCzAJBgNVBAYTAkRFMQ8wDQYDVQQIDAZIZXNzZW4xFDAS
BgNVBAoMC3ByaXZhY3lpZGVhMQ4wDAYDVQQDDAVDQTAwMYIJAPvI66yDzRIHMBMG
A1UdJQQMMAoGCCsGAQUFBwMBMA0GCSqGSIb3DQEBBQUAA4IBAQAVWd2wSqzyOFcp
IuI8vQnDshZNF35maSNmtmaYJWeSCfr2AxiaDKHiHfHIYcg5UtdfVUx2D+r7/dlu
/fksKduZQQoNSvyI5po4/HnJo4fqlyQWWLsVDlLvKlHnhko7GDXnXJApFk5VZIK/
PUAj0jQH6EfJYqCZvUNrv7nWi2ltyaJveRor07LKkVDbHyHJDCetQdvvtKk8u7rt
8oN7r38L5Ei2Ui8WAtox8r8kFg0IgCzbVzlYawZ7a9xt2FLlIzlOy4qjUH/1P01F
DGw/uDRP7kf5pANWm5Sce2o+SLS+yrCNUtKetAopTsKsFEOiid1o5R/ydrScCUVj
AbKBrqur
-----END CERTIFICATE-----
