Certificate:
    Data:
        Version: 3 (0x2)
        Serial Number: 268435691 (0x100000eb)
    Signature Algorithm: sha1WithRSAEncryption
        Issuer: C=DE, ST=Hessen, O=privacyidea, CN=CA001
        Validity
            Not Before: Sep 27 19:53:27 2016 GMT
            Not After : Sep 27 19:53:27 2017 GMT
        Subject: OU=realm1, CN=cornelius/emailAddress=user@localhost.localdomain
        Subject Public Key Info:
            Public Key Algorithm: rsaEncryption
                Public-Key: (2048 bit)
                Modulus:
                    00:ae:b0:c8:2e:bb:4c:d5:fa:ba:4c:91:88:85:33:
                    fb:f6:19:f3:eb:56:f5:29:03:07:d3:44:fb:1b:1c:
                    68:ed:10:f9:be:47:f7:a3:db:e5:88:f2:24:aa:e6:
                    74:b2:a7:30:a7:c6:84:be:24:2e:99:c7:4c:cf:5e:
                    09:07:32:2f:8f:24:41:ac:0d:19:43:7d:6b:e5:b8:
                    4d:ad:bc:da:bc:3c:37:60:e5:04:83:e2:42:d0:e1:
                    6d:c1:af:6c:25:d7:db:a0:09:fa:4c:34:ad:4b:63:
                    63:f9:07:63:79:18:b8:55:96:25:88:e7:6d:c4:16:
                    dc:20:73:b7:07:8c:65:00:51:15:59:29:18:9e:98:
                    96:ec:c3:cf:ad:d8:ae:23:db:89:04:23:a4:17:94:
                    22:cf:ee:a6:a9:18:87:75:af:76:d5:67:71:ff:96:
                    0b:77:09:a2:bf:bc:9a:f0:00:32:48:20:21:e1:fb:
                    61:94:66:ad:40:42:db:08:bc:81:aa:df:82:fc:d8:
                    80:1c:bc:27:a0:d3:ad:65:fb:81:eb:05:ce:14:e4:
                    64:ee:32:7b:47:7c:93:68:11:c1:2c:5e:6a:ae:63:
                    b2:77:87:c7:9b:2a:73:91:71:11:4c:39:2f:56:98:
                    40:bf:50:c5:a2:a5:3f:2f:33:eb:5e:9c:16:b7:83:
                    13:d1
                Exponent: 65537 (0x10001)
        X509v3 extensions:
            X509v3 Key Usage: 
                Digital Signature, Key Encipherment
            X509v3 Basic Constraints: 
                CA:FALSE
            Netscape Cert Type: 
                SSL Server
            Netscape Comment: 
                OpenSSL Generated Server Certificate
            X509v3 Subject Key Identifier: 
                61:B6:CF:81:12:72:E1:AD:62:9D:F9:22:4D:47:44:F6:43:B4:5C:67
            X509v3 Authority Key Identifier: 
                keyid:F4:A7:C0:CC:91:46:AF:64:F3:91:F2:27:F8:C8:B2:6F:8A:87:32:73
                DirName:/C=DE/ST=Hessen/O=privacyidea/CN=CA001
                serial:FB:C8:EB:AC:83:CD:12:07

            X509v3 Extended Key Usage: 
                TLS Web Server Authentication
    Signature Algorithm: sha1WithRSAEncryption
         95:18:56:ef:c8:3f:3f:2f:1d:7c:a0:5d:ff:69:4e:09:30:75:
         ba:ff:3e:f0:a2:96:d5:93:80:e6:72:51:a5:5a:b8:9f:22:ba:
         58:6a:f5:98:65:93:57:a3:d7:f6:94:1b:c9:97:00:73:78:65:
         7d:fa:f6:e9:87:02:34:1b:4b:83:18:5a:52:f7:6a:44:a0:23:
         06:99:1c:16:fe:5e:c1:22:78:bb:f9:f8:d2:4d:92:b2:ef:2b:
         2b:cf:66:44:91:d5:4c:68:ad:b4:bb:e6:c8:72:ea:e7:0c:15:
         ec:74:25:7c:9a:4c:72:f0:8a:ef:49:8f:fe:79:5f:96:c8:6a:
         b1:4a:59:f8:4a:ad:52:a6:8f:84:53:3b:65:c8:eb:94:4d:99:
         b0:0d:1e:20:26:36:46:d8:73:63:8a:ca:35:e4:8e:8d:f3:53:
         8c:83:f7:10:1d:90:b1:46:71:7f:b8:d3:57:3e:38:6f:c5:2f:
         64:4d:56:20:1f:12:e8:ef:62:0a:cb:ee:b7:f0:77:e2:bf:7f:
         1f:d8:8e:a8:61:82:e6:7a:22:99:4f:2f:8b:ca:93:a4:e0:fd:
         5c:a6:9e:4e:14:c9:d9:1e:76:d9:d3:94:0c:32:34:bc:3b:38:
         d0:51:58:ee:17:4e:16:12:36:4f:81:0b:60:02:3a:d4:8d:bc:
         29:2f:e0:01
-----BEGIN CERTIFICATE-----
MIIEIjCCAwqgAwIBAgIEEAAA6zANBgkqhkiG9w0BAQUFADBEMQswCQYDVQQGEwJE
RTEPMA0GA1UECAwGSGVzc2VuMRQwEgYDVQQKDAtwcml2YWN5aWRlYTEOMAwGA1UE
AwwFQ0EwMDEwHhcNMTYwOTI3MTk1MzI3WhcNMTcwOTI3MTk1MzI3WjBQMQ8wDQYD
VQQLDAZyZWFsbTExEjAQBgNVBAMMCWNvcm5lbGl1czEpMCcGCSqGSIb3DQEJARYa
dXNlckBsb2NhbGhvc3QubG9jYWxkb21haW4wggEiMA0GCSqGSIb3DQEBAQUAA4IB
DwAwggEKAoIBAQCusMguu0zV+rpMkYiFM/v2GfPrVvUpAwfTRPsbHGjtEPm+R/ej
2+WI8iSq5nSypzCnxoS+JC6Zx0zPXgkHMi+PJEGsDRlDfWvluE2tvNq8PDdg5QSD
4kLQ4W3Br2wl19ugCfpMNK1LY2P5B2N5GLhVliWI523EFtwgc7cHjGUAURVZKRie
mJbsw8+t2K4j24kEI6QXlCLP7qapGId1r3bVZ3H/lgt3CaK/vJrwADJIICHh+2GU
Zq1AQtsIvIGq34L82IAcvCeg061l+4HrBc4U5GTuMntHfJNoEcEsXmquY7J3h8eb
KnORcRFMOS9WmEC/UMWipT8vM+tenBa3gxPRAgMBAAGjggEOMIIBCjALBgNVHQ8E
BAMCBaAwCQYDVR0TBAIwADARBglghkgBhvhCAQEEBAMCBkAwMwYJYIZIAYb4QgEN
BCYWJE9wZW5TU0wgR2VuZXJhdGVkIFNlcnZlciBDZXJ0aWZpY2F0ZTAdBgNVHQ4E
FgQUYbbPgRJy4a1infkiTUdE9kO0XGcwdAYDVR0jBG0wa4AU9KfAzJFGr2TzkfIn
+Miyb4qHMnOhSKRGMEQxCzAJBgNVBAYTAkRFMQ8wDQYDVQQIDAZIZXNzZW4xFDAS
BgNVBAoMC3ByaXZhY3lpZGVhMQ4wDAYDVQQDDAVDQTAwMYIJAPvI66yDzRIHMBMG
A1UdJQQMMAoGCCsGAQUFBwMBMA0GCSqGSIb3DQEBBQUAA4IBAQCVGFbvyD8/Lx18
oF3/aU4JMHW6/z7wopbVk4DmclGlWrifIrpYavWYZZNXo9f2lBvJlwBzeGV9+vbp
hwI0G0uDGFpS92pEoCMGmRwW/l7BIni7+fjSTZKy7ysrz2ZEkdVMaK20u+bIcurn
DBXsdCV8mkxy8IrvSY/+eV+WyGqxSln4Sq1Spo+EUztlyOuUTZmwDR4gJjZG2HNj
iso15I6N81OMg/cQHZCxRnF/uNNXPjhvxS9kTVYgHxLo72IKy+638Hfiv38f2I6o
YYLmeiKZTy+LypOk4P1cpp5OFMnZHnbZ05QMMjS8OzjQUVjuF04WEjZPgQtgAjrU
jbwpL+AB
-----END CERTIFICATE-----
