Certificate:
    Data:
        Version: 3 (0x2)
        Serial Number: 268435680 (0x100000e0)
    Signature Algorithm: sha1WithRSAEncryption
        Issuer: C=DE, ST=Hessen, O=privacyidea, CN=CA001
        Validity
            Not Before: Sep 30 16:46:48 2016 GMT
            Not After : Sep 30 16:46:48 2017 GMT
        Subject: C=DE, ST=Hessen, O=privacyidea, CN=requester.localdomain
        Subject Public Key Info:
            Public Key Algorithm: rsaEncryption
                Public-Key: (2048 bit)
                Modulus:
                    00:cd:be:14:4f:fa:ce:01:3f:42:22:1b:1d:9c:af:
                    dd:92:d2:7f:db:6c:b7:3e:39:43:43:6b:13:03:f1:
                    05:f4:07:74:bc:76:69:28:0b:af:19:8e:d7:fc:e3:
                    cd:c6:58:f2:ca:7f:08:6d:53:fc:07:02:44:24:c6:
                    b4:34:4c:8c:04:fe:33:0e:40:e2:20:ba:02:73:5a:
                    f7:f5:4f:63:6e:cc:c6:b6:df:54:1d:37:39:7d:51:
                    36:26:5f:bd:dc:3f:a8:8b:6b:a2:ae:b6:9d:d6:21:
                    e7:df:41:b8:7a:28:2a:68:48:ca:a8:2d:ed:e1:e9:
                    46:5e:5a:72:6d:b4:84:38:87:91:fd:94:11:0b:28:
                    84:c6:c2:2f:2a:fb:01:f9:36:7a:09:75:d1:33:88:
                    3c:73:41:5b:c8:bf:94:89:70:a1:f0:c0:b9:2e:50:
                    53:1e:b1:17:64:69:f4:2d:81:e0:a9:0d:0e:32:e9:
                    ba:55:8a:85:f1:1b:6f:49:79:b4:7f:88:c3:0d:3e:
                    54:88:9b:3d:1f:38:8c:04:f3:ee:6a:63:2b:f5:c6:
                    db:b4:83:aa:c4:78:41:3a:7d:4b:e1:c8:3e:71:ca:
                    1b:61:59:ea:c6:c4:ca:32:5e:c9:e9:bf:12:29:e6:
                    c6:c3:63:fe:a0:55:da:7a:f1:60:98:4d:26:ed:fa:
                    70:2d
                Exponent: 65537 (0x10001)
        X509v3 extensions:
            X509v3 Key Usage: 
                Digital Signature, Key Encipherment
            X509v3 Basic Constraints: 
                CA:FALSE
            Netscape Cert Type: 
                SSL Server
            Netscape Comment: 
                OpenSSL Generated Server Certificate
            X509v3 Subject Key Identifier: 
                53:3F:ED:5D:09:07:B3:65:7B:AB:45:C9:24:5B:09:77:80:0A:96:ED
            X509v3 Authority Key Identifier: 
                keyid:F4:A7:C0:CC:91:46:AF:64:F3:91:F2:27:F8:C8:B2:6F:8A:87:32:73
                DirName:/C=DE/ST=Hessen/O=privacyidea/CN=CA001
                serial:FB:C8:EB:AC:83:CD:12:07

            X509v3 Extended Key Usage: 
                TLS Web Server Authentication
    Signature Algorithm: sha1WithRSAEncryption
         15:7f:d2:7e:87:0b:0f:bb:5c:8d:53:46:07:c9:fa:de:9a:59:
         22:5d:10:0d:a8:c5:9f:8b:87:b0:4a:58:9d:2c:6a:f5:bd:a9:
         09:27:1b:36:cd:d4:f1:8e:76:26:90:6e:8b:99:d2:bc:22:e0:
         42:92:54:ff:b2:86:0a:a5:f1:73:72:0e:28:e6:59:dd:2b:ca:
         88:81:50:06:aa:b4:f4:d7:42:7f:96:2f:3d:d9:18:67:98:73:
         6f:4d:db:fd:6a:74:12:fd:59:12:3e:a8:45:3d:e3:bc:9d:b5:
         4f:b9:ea:e1:6c:ad:67:37:ce:c0:87:e7:3d:06:2a:d5:34:04:
         b4:0f:89:10:61:fc:6a:13:05:d0:fd:4c:98:39:0d:5e:71:2a:
         1f:a1:1b:5c:66:a4:da:70:4a:13:34:b9:5f:cf:f8:91:3b:ee:
         4b:bc:22:56:d2:0c:94:86:0a:89:b5:a1:0c:37:53:c4:0b:b5:
         b5:c2:1c:99:41:61:e6:11:f8:93:81:0f:1b:09:bb:01:e7:b8:
         72:c7:0d:39:53:7a:d4:d5:05:7e:32:f3:4e:75:9a:12:73:2e:
         e6:8b:25:ef:9e:7d:3a:1f:b3:7f:57:43:94:46:fe:aa:f0:8b:
         75:56:ef:b1:66:99:ab:40:ff:25:98:51:02:98:bc:17:65:33:
         ac:1c:0f:36
-----BEGIN CERTIFICATE-----
MIIEJjCCAw6gAwIBAgIEEAAA4DANBgkqhkiG9w0BAQUFADBEMQswCQYDVQQGEwJE
RTEPMA0GA1UECAwGSGVzc2VuMRQwEgYDVQQKDAtwcml2YWN5aWRlYTEOMAwGA1UE
AwwFQ0EwMDEwHhcNMTYwOTMwMTY0NjQ4WhcNMTcwOTMwMTY0NjQ4WjBUMQswCQYD
VQQGEwJERTEPMA0GA1UECAwGSGVzc2VuMRQwEgYDVQQKDAtwcml2YWN5aWRlYTEe
MBwGA1UEAwwVcmVxdWVzdGVyLmxvY2FsZG9tYWluMIIBIjANBgkqhkiG9w0BAQEF
AAOCAQ8AMIIBCgKCAQEAzb4UT/rOAT9CIhsdnK/dktJ/22y3PjlDQ2sTA/EF9Ad0
vHZpKAuvGY7X/OPNxljyyn8IbVP8BwJEJMa0NEyMBP4zDkDiILoCc1r39U9jbszG
tt9UHTc5fVE2Jl+93D+oi2uirrad1iHn30G4eigqaEjKqC3t4elGXlpybbSEOIeR
/ZQRCyiExsIvKvsB+TZ6CXXRM4g8c0FbyL+UiXCh8MC5LlBTHrEXZGn0LYHgqQ0O
Mum6VYqF8RtvSXm0f4jDDT5UiJs9HziMBPPuamMr9cbbtIOqxHhBOn1L4cg+ccob
YVnqxsTKMl7J6b8SKebGw2P+oFXaevFgmE0m7fpwLQIDAQABo4IBDjCCAQowCwYD
VR0PBAQDAgWgMAkGA1UdEwQCMAAwEQYJYIZIAYb4QgEBBAQDAgZAMDMGCWCGSAGG
+EIBDQQmFiRPcGVuU1NMIEdlbmVyYXRlZCBTZXJ2ZXIgQ2VydGlmaWNhdGUwHQYD
VR0OBBYEFFM/7V0JB7Nle6tFySRbCXeACpbtMHQGA1UdIwRtMGuAFPSnwMyRRq9k
85HyJ/jIsm+KhzJzoUikRjBEMQswCQYDVQQGEwJERTEPMA0GA1UECAwGSGVzc2Vu
MRQwEgYDVQQKDAtwcml2YWN5aWRlYTEOMAwGA1UEAwwFQ0EwMDGCCQD7yOusg80S
BzATBgNVHSUEDDAKBggrBgEFBQcDATANBgkqhkiG9w0BAQUFAAOCAQEAFX/SfocL
D7tcjVNGB8n63ppZIl0QDajFn4uHsEpYnSxq9b2pCScbNs3U8Y52JpBui5nSvCLg
QpJU/7KGCqXxc3IOKOZZ3SvKiIFQBqq09NdCf5YvPdkYZ5hzb03b/Wp0Ev1ZEj6o
RT3jvJ21T7nq4WytZzfOwIfnPQYq1TQEtA+JEGH8ahMF0P1MmDkNXnEqH6EbXGak
2nBKEzS5X8/4kTvuS7wiVtIMlIYKibWhDDdTxAu1tcIcmUFh5hH4k4EPGwm7Aee4
cscNOVN61NUFfjLzTnWaEnMu5osl7559Oh+zf1dDlEb+qvCLdVbvsWaZq0D/JZhR
Api8F2UzrBwPNg==
-----END CERTIFICATE-----
