Certificate:
    Data:
        Version: 3 (0x2)
        Serial Number: 268435668 (0x100000d4)
    Signature Algorithm: sha1WithRSAEncryption
        Issuer: C=DE, ST=Hessen, O=privacyidea, CN=CA001
        Validity
            Not Before: Dec 19 12:51:00 2016 GMT
            Not After : Dec 19 12:51:00 2017 GMT
        Subject: OU=realm1, CN=cornelius/emailAddress=user@localhost.localdomain
        Subject Public Key Info:
            Public Key Algorithm: rsaEncryption
                Public-Key: (2048 bit)
                Modulus:
                    00:d9:ec:9b:e9:11:d3:58:27:b2:fd:73:0f:f9:2f:
                    9c:46:b3:8c:ef:dd:28:42:90:45:48:1e:e1:03:91:
                    14:3e:32:50:a3:ab:bd:1a:48:d1:57:22:fc:18:af:
                    1f:40:bd:76:23:b5:c2:ab:ca:13:bf:e8:e6:bd:46:
                    d6:d5:0e:48:52:77:ee:7b:a5:65:e3:31:97:e7:73:
                    9d:32:3b:82:eb:c5:4d:a9:be:f4:35:88:1e:9c:ed:
                    72:65:9f:8b:b2:9e:86:3e:59:72:13:15:7d:de:c2:
                    42:b6:98:f4:e3:72:b7:39:47:50:ee:04:81:1e:2b:
                    b0:13:51:6b:c5:8a:67:45:6e:f8:55:9f:9c:2f:a3:
                    32:09:57:50:e9:34:2f:ef:d9:30:2b:43:c1:02:9f:
                    9f:03:be:c4:86:21:0b:79:c8:77:a7:81:52:3b:e2:
                    46:e3:44:17:c9:7b:55:35:c9:17:89:00:bb:f2:3e:
                    eb:69:1d:43:18:5a:c0:db:6d:9a:d5:c7:05:68:98:
                    e8:cd:68:55:d9:51:5c:85:f4:67:db:e3:bb:7d:29:
                    2b:ee:fa:4e:14:cd:61:2e:7e:3b:77:fa:bd:9f:14:
                    27:39:ea:af:df:af:d9:46:84:7c:49:7c:77:a4:f4:
                    1d:67:10:27:af:87:25:e2:64:cb:d2:d3:1a:8e:b2:
                    f4:4f
                Exponent: 65537 (0x10001)
        X509v3 extensions:
            X509v3 Key Usage: 
                Digital Signature, Key Encipherment
            X509v3 Basic Constraints: 
                CA:FALSE
            Netscape Cert Type: 
                SSL Server
            Netscape Comment: 
                OpenSSL Generated Server Certificate
            X509v3 Subject Key Identifier: 
                B5:A3:0F:3A:D0:06:9C:0C:57:88:84:94:76:F4:51:B5:3D:A0:65:68
            X509v3 Authority Key Identifier: 
                keyid:F4:A7:C0:CC:91:46:AF:64:F3:91:F2:27:F8:C8:B2:6F:8A:87:32:73
                DirName:/C=DE/ST=Hessen/O=privacyidea/CN=CA001
                serial:FB:C8:EB:AC:83:CD:12:07

            X509v3 Extended Key Usage: 
                TLS Web Server Authentication
    Signature Algorithm: sha1WithRSAEncryption
         13:9e:96:b7:6a:f5:c9:4f:ae:e8:d4:ca:b8:ee:5d:71:8b:54:
         5c:b4:8e:47:44:21:4a:f8:d3:75:dd:e3:91:61:19:b3:df:80:
         6b:15:4a:15:14:3a:c9:ee:0d:75:96:9f:c9:ba:f1:59:3a:d0:
         25:25:5d:0f:4a:f3:de:ec:f8:99:87:fd:03:0d:72:2a:21:84:
         fe:92:17:aa:1d:0b:48:4a:3a:cc:f0:7c:6a:81:c2:8c:4a:ea:
         9b:a4:9f:42:5a:df:e1:96:7c:16:33:c9:64:1a:db:6c:19:c0:
         71:95:64:82:70:a6:43:c4:02:aa:4a:28:c4:ce:54:51:b2:8d:
         10:c7:99:2c:05:f7:a2:b6:4e:0e:47:33:f6:ee:94:cc:a0:3a:
         fc:11:01:d1:9a:34:85:e2:f3:79:a9:ad:34:47:74:47:da:b5:
         bc:76:c7:a7:f5:9a:89:67:10:12:2d:f6:5c:fa:0e:87:d1:e5:
         b7:16:c2:db:ed:9f:d7:3d:33:81:7a:bf:16:f3:ec:aa:5f:9e:
         81:79:b9:10:62:c4:47:eb:33:b1:2a:75:8d:91:4d:51:a3:11:
         f5:a6:30:c7:e9:c5:6a:60:96:9d:45:85:0a:ea:5d:f4:e8:3c:
         28:e1:ea:45:5c:6b:13:be:ba:7b:e8:74:34:6a:d9:e4:ff:69:
         74:60:3d:f1
-----BEGIN CERTIFICATE-----
MIIEIjCCAwqgAwIBAgIEEAAA1DANBgkqhkiG9w0BAQUFADBEMQswCQYDVQQGEwJE
RTEPMA0GA1UECAwGSGVzc2VuMRQwEgYDVQQKDAtwcml2YWN5aWRlYTEOMAwGA1UE
AwwFQ0EwMDEwHhcNMTYxMjE5MTI1MTAwWhcNMTcxMjE5MTI1MTAwWjBQMQ8wDQYD
VQQLDAZyZWFsbTExEjAQBgNVBAMMCWNvcm5lbGl1czEpMCcGCSqGSIb3DQEJARYa
dXNlckBsb2NhbGhvc3QubG9jYWxkb21haW4wggEiMA0GCSqGSIb3DQEBAQUAA4IB
DwAwggEKAoIBAQDZ7JvpEdNYJ7L9cw/5L5xGs4zv3ShCkEVIHuEDkRQ+MlCjq70a
SNFXIvwYrx9AvXYjtcKryhO/6Oa9RtbVDkhSd+57pWXjMZfnc50yO4LrxU2pvvQ1
iB6c7XJln4uynoY+WXITFX3ewkK2mPTjcrc5R1DuBIEeK7ATUWvFimdFbvhVn5wv
ozIJV1DpNC/v2TArQ8ECn58DvsSGIQt5yHengVI74kbjRBfJe1U1yReJALvyPutp
HUMYWsDbbZrVxwVomOjNaFXZUVyF9Gfb47t9KSvu+k4UzWEufjt3+r2fFCc56q/f
r9lGhHxJfHek9B1nECevhyXiZMvS0xqOsvRPAgMBAAGjggEOMIIBCjALBgNVHQ8E
BAMCBaAwCQYDVR0TBAIwADARBglghkgBhvhCAQEEBAMCBkAwMwYJYIZIAYb4QgEN
BCYWJE9wZW5TU0wgR2VuZXJhdGVkIFNlcnZlciBDZXJ0aWZpY2F0ZTAdBgNVHQ4E
FgQUtaMPOtAGnAxXiISUdvRRtT2gZWgwdAYDVR0jBG0wa4AU9KfAzJFGr2TzkfIn
+Miyb4qHMnOhSKRGMEQxCzAJBgNVBAYTAkRFMQ8wDQYDVQQIDAZIZXNzZW4xFDAS
BgNVBAoMC3ByaXZhY3lpZGVhMQ4wDAYDVQQDDAVDQTAwMYIJAPvI66yDzRIHMBMG
A1UdJQQMMAoGCCsGAQUFBwMBMA0GCSqGSIb3DQEBBQUAA4IBAQATnpa3avXJT67o
1Mq47l1xi1RctI5HRCFK+NN13eORYRmz34BrFUoVFDrJ7g11lp/JuvFZOtAlJV0P
SvPe7PiZh/0DDXIqIYT+kheqHQtISjrM8HxqgcKMSuqbpJ9CWt/hlnwWM8lkGtts
GcBxlWSCcKZDxAKqSijEzlRRso0Qx5ksBfeitk4ORzP27pTMoDr8EQHRmjSF4vN5
qa00R3RH2rW8dsen9ZqJZxASLfZc+g6H0eW3FsLb7Z/XPTOBer8W8+yqX56BebkQ
YsRH6zOxKnWNkU1RoxH1pjDH6cVqYJadRYUK6l306Dwo4epFXGsTvrp76HQ0atnk
/2l0YD3x
-----END CERTIFICATE-----
