Certificate:
    Data:
        Version: 3 (0x2)
        Serial Number: 268435667 (0x100000d3)
    Signature Algorithm: sha1WithRSAEncryption
        Issuer: C=DE, ST=Hessen, O=privacyidea, CN=CA001
        Validity
            Not Before: Dec 19 12:50:58 2016 GMT
            Not After : Dec 19 12:50:58 2017 GMT
        Subject: C=DE, ST=Hessen, O=privacyidea, CN=requester.localdomain
        Subject Public Key Info:
            Public Key Algorithm: rsaEncryption
                Public-Key: (2048 bit)
                Modulus:
                    00:cd:be:14:4f:fa:ce:01:3f:42:22:1b:1d:9c:af:
                    dd:92:d2:7f:db:6c:b7:3e:39:43:43:6b:13:03:f1:
                    05:f4:07:74:bc:76:69:28:0b:af:19:8e:d7:fc:e3:
                    cd:c6:58:f2:ca:7f:08:6d:53:fc:07:02:44:24:c6:
                    b4:34:4c:8c:04:fe:33:0e:40:e2:20:ba:02:73:5a:
                    f7:f5:4f:63:6e:cc:c6:b6:df:54:1d:37:39:7d:51:
                    36:26:5f:bd:dc:3f:a8:8b:6b:a2:ae:b6:9d:d6:21:
                    e7:df:41:b8:7a:28:2a:68:48:ca:a8:2d:ed:e1:e9:
                    46:5e:5a:72:6d:b4:84:38:87:91:fd:94:11:0b:28:
                    84:c6:c2:2f:2a:fb:01:f9:36:7a:09:75:d1:33:88:
                    3c:73:41:5b:c8:bf:94:89:70:a1:f0:c0:b9:2e:50:
                    53:1e:b1:17:64:69:f4:2d:81:e0:a9:0d:0e:32:e9:
                    ba:55:8a:85:f1:1b:6f:49:79:b4:7f:88:c3:0d:3e:
                    54:88:9b:3d:1f:38:8c:04:f3:ee:6a:63:2b:f5:c6:
                    db:b4:83:aa:c4:78:41:3a:7d:4b:e1:c8:3e:71:ca:
                    1b:61:59:ea:c6:c4:ca:32:5e:c9:e9:bf:12:29:e6:
                    c6:c3:63:fe:a0:55:da:7a:f1:60:98:4d:26:ed:fa:
                    70:2d
                Exponent: 65537 (0x10001)
        X509v3 extensions:
            X509v3 Key Usage: 
                Digital Signature, Key Encipherment
            X509v3 Basic Constraints: 
                CA:FALSE
            Netscape Cert Type: 
                SSL Server
            Netscape Comment: 
                OpenSSL Generated Server Certificate
            X509v3 Subject Key Identifier: 
                53:3F:ED:5D:09:07:B3:65:7B:AB:45:C9:24:5B:09:77:80:0A:96:ED
            X509v3 Authority Key Identifier: 
                keyid:F4:A7:C0:CC:91:46:AF:64:F3:91:F2:27:F8:C8:B2:6F:8A:87:32:73
                DirName:/C=DE/ST=Hessen/O=privacyidea/CN=CA001
                serial:FB:C8:EB:AC:83:CD:12:07

            X509v3 Extended Key Usage: 
                TLS Web Server Authentication
    Signature Algorithm: sha1WithRSAEncryption
         23:da:32:ee:6e:89:d2:cf:47:9e:3e:ec:d9:c6:a0:8d:a2:43:
         84:1e:61:b7:65:56:38:be:c6:18:05:94:e3:57:8e:9b:e3:f9:
         dc:85:c4:cb:b6:46:54:c8:59:54:89:fe:83:af:a9:78:ad:40:
         8e:7b:bf:64:e4:ca:96:65:eb:9d:c6:35:6d:53:70:e3:10:fd:
         1b:86:20:4b:a6:50:9e:de:9f:ea:5f:a1:a2:16:1d:02:a5:22:
         72:32:e8:49:19:2d:c5:15:34:e8:5a:23:e8:97:ff:6f:1c:d6:
         39:11:76:1f:2d:65:83:da:52:70:f6:2c:74:87:4b:06:78:0c:
         8a:d3:b7:0a:91:80:95:ba:93:05:9a:5e:55:82:ca:80:8d:41:
         e1:03:83:ea:36:19:32:a5:e0:60:b5:9e:b7:9d:40:d1:21:e9:
         ac:0c:af:ed:09:69:60:d5:48:f9:42:20:cc:80:69:62:dc:65:
         33:d1:c8:f1:14:a4:24:00:83:d0:9d:28:a8:c9:7e:0f:6a:1e:
         4e:49:f3:17:a7:ac:58:69:ad:8b:94:b0:d0:4f:d7:85:41:93:
         2f:ea:b5:d3:dd:c1:b6:bc:2e:ff:19:0b:df:23:a2:57:13:ba:
         da:8f:31:04:64:e7:27:18:59:a2:66:7d:de:51:65:83:ed:6d:
         23:f1:70:2c
-----BEGIN CERTIFICATE-----
MIIEJjCCAw6gAwIBAgIEEAAA0zANBgkqhkiG9w0BAQUFADBEMQswCQYDVQQGEwJE
RTEPMA0GA1UECAwGSGVzc2VuMRQwEgYDVQQKDAtwcml2YWN5aWRlYTEOMAwGA1UE
AwwFQ0EwMDEwHhcNMTYxMjE5MTI1MDU4WhcNMTcxMjE5MTI1MDU4WjBUMQswCQYD
VQQGEwJERTEPMA0GA1UECAwGSGVzc2VuMRQwEgYDVQQKDAtwcml2YWN5aWRlYTEe
MBwGA1UEAwwVcmVxdWVzdGVyLmxvY2FsZG9tYWluMIIBIjANBgkqhkiG9w0BAQEF
AAOCAQ8AMIIBCgKCAQEAzb4UT/rOAT9CIhsdnK/dktJ/22y3PjlDQ2sTA/EF9Ad0
vHZpKAuvGY7X/OPNxljyyn8IbVP8BwJEJMa0NEyMBP4zDkDiILoCc1r39U9jbszG
tt9UHTc5fVE2Jl+93D+oi2uirrad1iHn30G4eigqaEjKqC3t4elGXlpybbSEOIeR
/ZQRCyiExsIvKvsB+TZ6CXXRM4g8c0FbyL+UiXCh8MC5LlBTHrEXZGn0LYHgqQ0O
Mum6VYqF8RtvSXm0f4jDDT5UiJs9HziMBPPuamMr9cbbtIOqxHhBOn1L4cg+ccob
YVnqxsTKMl7J6b8SKebGw2P+oFXaevFgmE0m7fpwLQIDAQABo4IBDjCCAQowCwYD
VR0PBAQDAgWgMAkGA1UdEwQCMAAwEQYJYIZIAYb4QgEBBAQDAgZAMDMGCWCGSAGG
+EIBDQQmFiRPcGVuU1NMIEdlbmVyYXRlZCBTZXJ2ZXIgQ2VydGlmaWNhdGUwHQYD
VR0OBBYEFFM/7V0JB7Nle6tFySRbCXeACpbtMHQGA1UdIwRtMGuAFPSnwMyRRq9k
85HyJ/jIsm+KhzJzoUikRjBEMQswCQYDVQQGEwJERTEPMA0GA1UECAwGSGVzc2Vu
MRQwEgYDVQQKDAtwcml2YWN5aWRlYTEOMAwGA1UEAwwFQ0EwMDGCCQD7yOusg80S
BzATBgNVHSUEDDAKBggrBgEFBQcDATANBgkqhkiG9w0BAQUFAAOCAQEAI9oy7m6J
0s9Hnj7s2cagjaJDhB5ht2VWOL7GGAWU41eOm+P53IXEy7ZGVMhZVIn+g6+peK1A
jnu/ZOTKlmXrncY1bVNw4xD9G4YgS6ZQnt6f6l+hohYdAqUicjLoSRktxRU06Foj
6Jf/bxzWORF2Hy1lg9pScPYsdIdLBngMitO3CpGAlbqTBZpeVYLKgI1B4QOD6jYZ
MqXgYLWet51A0SHprAyv7QlpYNVI+UIgzIBpYtxlM9HI8RSkJACD0J0oqMl+D2oe
TknzF6esWGmti5Sw0E/XhUGTL+q1093Btrwu/xkL3yOiVxO62o8xBGTnJxhZomZ9
3lFlg+1tI/FwLA==
-----END CERTIFICATE-----
