Certificate:
    Data:
        Version: 3 (0x2)
        Serial Number: 268435683 (0x100000e3)
    Signature Algorithm: sha1WithRSAEncryption
        Issuer: C=DE, ST=Hessen, O=privacyidea, CN=CA001
        Validity
            Not Before: Sep 30 16:48:06 2016 GMT
            Not After : Sep 30 16:48:06 2017 GMT
        Subject: CN=Steve Test/emailAddress=steve@openssl.org
        Subject Public Key Info:
            Public Key Algorithm: rsaEncryption
                Public-Key: (2048 bit)
                Modulus:
                    00:d2:81:89:20:51:48:0f:73:f4:11:32:24:d5:1f:
                    1c:fd:5c:f5:b6:e6:c5:f0:52:81:dc:d2:af:66:4a:
                    7c:93:31:61:5c:af:d1:6d:06:70:03:60:7c:72:0c:
                    88:dd:49:cd:9e:02:6c:d2:5a:d7:53:0f:f3:da:be:
                    69:64:b5:0f:0c:00:e3:b3:50:47:a3:b3:9b:ba:13:
                    50:d6:58:5a:4b:ab:39:e0:11:ca:0a:27:67:03:78:
                    22:66:6d:92:1e:1b:5c:49:ae:e6:6b:d1:8e:3b:9d:
                    06:d3:c6:ac:4d:53:43:10:ab:e8:96:c1:87:82:97:
                    99:8f:20:d3:99:12:37:31:84:e1:8a:ff:29:03:5f:
                    22:90:3e:7f:9b:e0:20:c1:ad:dc:ae:4c:39:1a:31:
                    96:17:02:8c:b2:d9:b4:0d:20:12:9b:7d:86:54:fd:
                    33:fd:c1:2a:62:46:f8:60:96:cf:6e:01:6f:22:df:
                    13:47:e7:97:ec:05:72:23:a3:62:f8:fa:ef:ac:9c:
                    72:f0:37:cb:2f:37:cf:90:a8:27:51:86:c6:d7:78:
                    08:8f:7e:25:a2:15:70:a2:fb:1c:b6:15:5e:a0:97:
                    8b:81:4c:09:28:8a:27:3b:94:bc:71:db:5b:71:37:
                    9a:2b:16:e0:6f:b5:c9:f5:4b:4f:20:ba:65:cf:af:
                    ad:ad
                Exponent: 65537 (0x10001)
        X509v3 extensions:
            X509v3 Key Usage: 
                Digital Signature, Key Encipherment
            X509v3 Basic Constraints: 
                CA:FALSE
            Netscape Cert Type: 
                SSL Server
            Netscape Comment: 
                OpenSSL Generated Server Certificate
            X509v3 Subject Key Identifier: 
                E5:25:6D:3E:AF:0D:DD:3F:4C:F2:45:19:39:D5:14:DB:7E:9C:C0:AD
            X509v3 Authority Key Identifier: 
                keyid:F4:A7:C0:CC:91:46:AF:64:F3:91:F2:27:F8:C8:B2:6F:8A:87:32:73
                DirName:/C=DE/ST=Hessen/O=privacyidea/CN=CA001
                serial:FB:C8:EB:AC:83:CD:12:07

            X509v3 Extended Key Usage: 
                TLS Web Server Authentication
    Signature Algorithm: sha1WithRSAEncryption
         7f:c0:46:74:16:c2:ae:ff:ea:45:50:7a:69:bd:6e:7a:75:a1:
         36:2d:af:ce:55:de:21:4e:f1:1a:39:fe:24:ee:71:d4:3a:c9:
         e5:47:e0:da:66:7e:f2:0d:9d:60:ff:11:5a:5a:c6:7d:ee:bb:
         a7:d8:fa:01:da:36:a8:e7:04:7a:07:57:ff:fa:f2:30:28:d1:
         7a:8b:87:98:7e:c3:e4:cd:66:74:64:bc:23:b7:77:09:a2:8d:
         27:35:93:bb:c1:17:e4:1c:2a:b9:bd:fe:1a:86:84:79:9b:cd:
         9e:3b:2a:43:cb:7f:33:e8:55:d6:7d:db:ec:c3:25:1a:36:3b:
         38:f7:4e:7b:47:ec:44:15:71:e4:72:ea:c2:c4:a7:dd:53:15:
         0e:b0:07:59:fd:3b:27:31:7d:dc:0f:1c:65:cb:87:53:50:45:
         9c:0d:71:4b:e4:f5:19:ad:c4:02:82:a1:7a:4a:c1:4d:e8:c2:
         9b:a2:d2:30:80:c3:64:1b:0d:f6:a2:72:d7:c5:bd:cc:3e:8d:
         3f:15:e7:ad:08:da:61:8d:11:6a:9a:e5:dd:6b:94:c2:99:4f:
         d4:80:70:c3:2c:35:f7:ee:31:bc:c6:9e:00:37:e6:48:ba:74:
         57:e8:bd:55:83:fb:a8:a0:c5:d2:b1:24:76:6e:0c:c2:b2:ad:
         24:3b:fd:27
-----BEGIN CERTIFICATE-----
MIIECTCCAvGgAwIBAgIEEAAA4zANBgkqhkiG9w0BAQUFADBEMQswCQYDVQQGEwJE
RTEPMA0GA1UECAwGSGVzc2VuMRQwEgYDVQQKDAtwcml2YWN5aWRlYTEOMAwGA1UE
AwwFQ0EwMDEwHhcNMTYwOTMwMTY0ODA2WhcNMTcwOTMwMTY0ODA2WjA3MRMwEQYD
VQQDDApTdGV2ZSBUZXN0MSAwHgYJKoZIhvcNAQkBFhFzdGV2ZUBvcGVuc3NsLm9y
ZzCCASIwDQYJKoZIhvcNAQEBBQADggEPADCCAQoCggEBANKBiSBRSA9z9BEyJNUf
HP1c9bbmxfBSgdzSr2ZKfJMxYVyv0W0GcANgfHIMiN1JzZ4CbNJa11MP89q+aWS1
DwwA47NQR6Ozm7oTUNZYWkurOeARygonZwN4ImZtkh4bXEmu5mvRjjudBtPGrE1T
QxCr6JbBh4KXmY8g05kSNzGE4Yr/KQNfIpA+f5vgIMGt3K5MORoxlhcCjLLZtA0g
Ept9hlT9M/3BKmJG+GCWz24BbyLfE0fnl+wFciOjYvj676yccvA3yy83z5CoJ1GG
xtd4CI9+JaIVcKL7HLYVXqCXi4FMCSiKJzuUvHHbW3E3misW4G+1yfVLTyC6Zc+v
ra0CAwEAAaOCAQ4wggEKMAsGA1UdDwQEAwIFoDAJBgNVHRMEAjAAMBEGCWCGSAGG
+EIBAQQEAwIGQDAzBglghkgBhvhCAQ0EJhYkT3BlblNTTCBHZW5lcmF0ZWQgU2Vy
dmVyIENlcnRpZmljYXRlMB0GA1UdDgQWBBTlJW0+rw3dP0zyRRk51RTbfpzArTB0
BgNVHSMEbTBrgBT0p8DMkUavZPOR8if4yLJviocyc6FIpEYwRDELMAkGA1UEBhMC
REUxDzANBgNVBAgMBkhlc3NlbjEUMBIGA1UECgwLcHJpdmFjeWlkZWExDjAMBgNV
BAMMBUNBMDAxggkA+8jrrIPNEgcwEwYDVR0lBAwwCgYIKwYBBQUHAwEwDQYJKoZI
hvcNAQEFBQADggEBAH/ARnQWwq7/6kVQemm9bnp1oTYtr85V3iFO8Ro5/iTucdQ6
yeVH4NpmfvINnWD/EVpaxn3uu6fY+gHaNqjnBHoHV//68jAo0XqLh5h+w+TNZnRk
vCO3dwmijSc1k7vBF+QcKrm9/hqGhHmbzZ47KkPLfzPoVdZ92+zDJRo2Ozj3TntH
7EQVceRy6sLEp91TFQ6wB1n9OycxfdwPHGXLh1NQRZwNcUvk9RmtxAKCoXpKwU3o
wpui0jCAw2QbDfaictfFvcw+jT8V560I2mGNEWqa5d1rlMKZT9SAcMMsNffuMbzG
ngA35ki6dFfovVWD+6igxdKxJHZuDMKyrSQ7/Sc=
-----END CERTIFICATE-----
