Certificate:
    Data:
        Version: 3 (0x2)
        Serial Number: 268435709 (0x100000fd)
    Signature Algorithm: sha1WithRSAEncryption
        Issuer: C=DE, ST=Hessen, O=privacyidea, CN=CA001
        Validity
            Not Before: Apr 26 13:30:59 2016 GMT
            Not After : Apr 26 13:30:59 2017 GMT
        Subject: C=DE, ST=Hessen, O=privacyidea, CN=requester.localdomain
        Subject Public Key Info:
            Public Key Algorithm: rsaEncryption
                Public-Key: (2048 bit)
                Modulus:
                    00:cd:be:14:4f:fa:ce:01:3f:42:22:1b:1d:9c:af:
                    dd:92:d2:7f:db:6c:b7:3e:39:43:43:6b:13:03:f1:
                    05:f4:07:74:bc:76:69:28:0b:af:19:8e:d7:fc:e3:
                    cd:c6:58:f2:ca:7f:08:6d:53:fc:07:02:44:24:c6:
                    b4:34:4c:8c:04:fe:33:0e:40:e2:20:ba:02:73:5a:
                    f7:f5:4f:63:6e:cc:c6:b6:df:54:1d:37:39:7d:51:
                    36:26:5f:bd:dc:3f:a8:8b:6b:a2:ae:b6:9d:d6:21:
                    e7:df:41:b8:7a:28:2a:68:48:ca:a8:2d:ed:e1:e9:
                    46:5e:5a:72:6d:b4:84:38:87:91:fd:94:11:0b:28:
                    84:c6:c2:2f:2a:fb:01:f9:36:7a:09:75:d1:33:88:
                    3c:73:41:5b:c8:bf:94:89:70:a1:f0:c0:b9:2e:50:
                    53:1e:b1:17:64:69:f4:2d:81:e0:a9:0d:0e:32:e9:
                    ba:55:8a:85:f1:1b:6f:49:79:b4:7f:88:c3:0d:3e:
                    54:88:9b:3d:1f:38:8c:04:f3:ee:6a:63:2b:f5:c6:
                    db:b4:83:aa:c4:78:41:3a:7d:4b:e1:c8:3e:71:ca:
                    1b:61:59:ea:c6:c4:ca:32:5e:c9:e9:bf:12:29:e6:
                    c6:c3:63:fe:a0:55:da:7a:f1:60:98:4d:26:ed:fa:
                    70:2d
                Exponent: 65537 (0x10001)
        X509v3 extensions:
            X509v3 Key Usage: 
                Digital Signature, Key Encipherment
            X509v3 Basic Constraints: 
                CA:FALSE
            Netscape Cert Type: 
                SSL Server
            Netscape Comment: 
                OpenSSL Generated Server Certificate
            X509v3 Subject Key Identifier: 
                53:3F:ED:5D:09:07:B3:65:7B:AB:45:C9:24:5B:09:77:80:0A:96:ED
            X509v3 Authority Key Identifier: 
                keyid:F4:A7:C0:CC:91:46:AF:64:F3:91:F2:27:F8:C8:B2:6F:8A:87:32:73
                DirName:/C=DE/ST=Hessen/O=privacyidea/CN=CA001
                serial:FB:C8:EB:AC:83:CD:12:07

            X509v3 Extended Key Usage: 
                TLS Web Server Authentication
    Signature Algorithm: sha1WithRSAEncryption
         11:58:2c:5f:48:14:73:e5:74:e3:d1:3e:b8:59:63:54:8c:76:
         8d:ab:e4:6e:a6:0f:6e:08:a0:fb:e3:86:04:45:c0:05:97:5d:
         c2:12:cd:84:53:c8:12:85:df:dc:5d:f4:86:8a:4e:d2:4c:67:
         5d:63:90:cf:95:ce:d4:2d:94:46:9d:9c:5f:7b:2e:e6:bb:b4:
         c2:a5:e1:c5:86:7c:47:4c:4e:13:e4:84:c6:93:0b:50:43:c6:
         9f:39:8b:ea:11:5e:52:a5:e1:dc:78:bb:85:77:91:64:e6:82:
         38:96:ba:a5:aa:1c:1c:fd:d9:e0:8a:ac:aa:8e:79:f3:92:0e:
         bb:f3:4c:b9:be:c4:5b:58:d5:63:77:e4:54:df:df:fb:7e:06:
         1d:50:b4:af:a4:bc:43:d4:49:43:15:70:7d:f6:2f:6c:d9:9d:
         a7:d3:7d:06:76:26:6a:3e:4c:78:cb:0f:da:c9:9e:58:97:d7:
         0e:18:b3:b9:cb:54:07:da:25:5b:5f:f0:b4:9c:53:30:63:4c:
         ad:af:7c:9f:17:7f:63:59:84:2f:d4:a3:92:90:c7:cc:c4:77:
         10:e9:84:8f:b9:c0:78:56:09:de:02:4b:28:1b:fa:01:5f:4c:
         33:a1:c8:1b:75:ba:be:05:a7:c7:20:90:0f:be:8e:a8:a7:62:
         98:38:89:33
-----BEGIN CERTIFICATE-----
MIIEJjCCAw6gAwIBAgIEEAAA/TANBgkqhkiG9w0BAQUFADBEMQswCQYDVQQGEwJE
RTEPMA0GA1UECAwGSGVzc2VuMRQwEgYDVQQKDAtwcml2YWN5aWRlYTEOMAwGA1UE
AwwFQ0EwMDEwHhcNMTYwNDI2MTMzMDU5WhcNMTcwNDI2MTMzMDU5WjBUMQswCQYD
VQQGEwJERTEPMA0GA1UECAwGSGVzc2VuMRQwEgYDVQQKDAtwcml2YWN5aWRlYTEe
MBwGA1UEAwwVcmVxdWVzdGVyLmxvY2FsZG9tYWluMIIBIjANBgkqhkiG9w0BAQEF
AAOCAQ8AMIIBCgKCAQEAzb4UT/rOAT9CIhsdnK/dktJ/22y3PjlDQ2sTA/EF9Ad0
vHZpKAuvGY7X/OPNxljyyn8IbVP8BwJEJMa0NEyMBP4zDkDiILoCc1r39U9jbszG
tt9UHTc5fVE2Jl+93D+oi2uirrad1iHn30G4eigqaEjKqC3t4elGXlpybbSEOIeR
/ZQRCyiExsIvKvsB+TZ6CXXRM4g8c0FbyL+UiXCh8MC5LlBTHrEXZGn0LYHgqQ0O
Mum6VYqF8RtvSXm0f4jDDT5UiJs9HziMBPPuamMr9cbbtIOqxHhBOn1L4cg+ccob
YVnqxsTKMl7J6b8SKebGw2P+oFXaevFgmE0m7fpwLQIDAQABo4IBDjCCAQowCwYD
VR0PBAQDAgWgMAkGA1UdEwQCMAAwEQYJYIZIAYb4QgEBBAQDAgZAMDMGCWCGSAGG
+EIBDQQmFiRPcGVuU1NMIEdlbmVyYXRlZCBTZXJ2ZXIgQ2VydGlmaWNhdGUwHQYD
VR0OBBYEFFM/7V0JB7Nle6tFySRbCXeACpbtMHQGA1UdIwRtMGuAFPSnwMyRRq9k
85HyJ/jIsm+KhzJzoUikRjBEMQswCQYDVQQGEwJERTEPMA0GA1UECAwGSGVzc2Vu
MRQwEgYDVQQKDAtwcml2YWN5aWRlYTEOMAwGA1UEAwwFQ0EwMDGCCQD7yOusg80S
BzATBgNVHSUEDDAKBggrBgEFBQcDATANBgkqhkiG9w0BAQUFAAOCAQEAEVgsX0gU
c+V049E+uFljVIx2javkbqYPbgig++OGBEXABZddwhLNhFPIEoXf3F30hopO0kxn
XWOQz5XO1C2URp2cX3su5ru0wqXhxYZ8R0xOE+SExpMLUEPGnzmL6hFeUqXh3Hi7
hXeRZOaCOJa6paocHP3Z4Iqsqo5585IOu/NMub7EW1jVY3fkVN/f+34GHVC0r6S8
Q9RJQxVwffYvbNmdp9N9BnYmaj5MeMsP2smeWJfXDhizuctUB9olW1/wtJxTMGNM
ra98nxd/Y1mEL9SjkpDHzMR3EOmEj7nAeFYJ3gJLKBv6AV9MM6HIG3W6vgWnxyCQ
D76OqKdimDiJMw==
-----END CERTIFICATE-----
