Certificate:
    Data:
        Version: 3 (0x2)
        Serial Number: 268435697 (0x100000f1)
    Signature Algorithm: sha1WithRSAEncryption
        Issuer: C=DE, ST=Hessen, O=privacyidea, CN=CA001
        Validity
            Not Before: Sep 27 20:02:03 2016 GMT
            Not After : Sep 27 20:02:03 2017 GMT
        Subject: OU=realm1, CN=cornelius/emailAddress=user@localhost.localdomain
        Subject Public Key Info:
            Public Key Algorithm: rsaEncryption
                Public-Key: (2048 bit)
                Modulus:
                    00:bd:b3:fe:17:a8:66:72:f4:63:f1:00:86:fa:ba:
                    02:f5:fd:32:1e:13:7e:7c:bc:a3:0a:5c:22:e1:84:
                    7a:94:b8:86:1c:be:22:46:4b:65:c4:79:5d:b5:8c:
                    16:0a:d9:37:5b:81:75:87:c7:2e:2c:e5:33:9d:ec:
                    08:1c:66:ed:3c:05:45:f8:7a:2e:2c:c8:dc:c4:49:
                    f9:d2:5a:44:cd:6d:d0:7b:37:02:aa:da:d6:ae:5f:
                    bb:e5:0e:50:33:ca:bc:96:b3:f0:c7:a1:eb:65:70:
                    93:57:80:0f:91:28:b1:b9:12:82:17:81:45:00:d4:
                    8e:dd:c6:74:4c:26:e8:1e:d2:f0:77:38:45:68:12:
                    97:ee:2e:41:51:1e:5a:68:59:df:ae:c6:2e:7a:b1:
                    c7:b3:48:6d:8c:ac:a1:da:e3:70:8e:28:72:64:7c:
                    e5:29:00:e2:37:66:e6:eb:29:fd:55:ba:e1:bf:46:
                    e6:19:1d:d4:bf:ad:c8:82:5f:f0:da:a8:ed:43:12:
                    33:24:ad:83:99:ef:47:8b:b1:64:98:fc:70:26:79:
                    35:f4:3b:88:11:f1:df:1e:e7:cb:26:25:0b:b7:da:
                    95:75:72:7b:34:d9:9d:45:14:7a:72:8d:3f:06:69:
                    46:ed:ca:1f:45:e4:b9:5b:de:a0:04:4e:9f:fd:3c:
                    3d:67
                Exponent: 65537 (0x10001)
        X509v3 extensions:
            X509v3 Key Usage: 
                Digital Signature, Key Encipherment
            X509v3 Basic Constraints: 
                CA:FALSE
            Netscape Cert Type: 
                SSL Server
            Netscape Comment: 
                OpenSSL Generated Server Certificate
            X509v3 Subject Key Identifier: 
                61:0E:13:7B:55:6C:15:25:42:43:C8:23:5E:44:40:08:2E:25:44:04
            X509v3 Authority Key Identifier: 
                keyid:F4:A7:C0:CC:91:46:AF:64:F3:91:F2:27:F8:C8:B2:6F:8A:87:32:73
                DirName:/C=DE/ST=Hessen/O=privacyidea/CN=CA001
                serial:FB:C8:EB:AC:83:CD:12:07

            X509v3 Extended Key Usage: 
                TLS Web Server Authentication
    Signature Algorithm: sha1WithRSAEncryption
         3d:6c:8e:08:c5:4e:7e:7e:15:ae:20:72:b9:1f:3c:f9:59:8e:
         89:6b:03:d8:a6:05:d6:51:49:39:02:da:e8:5f:53:4e:cb:91:
         60:0a:d5:f8:0b:0d:df:95:c7:53:15:66:bd:e0:7e:75:7c:05:
         ac:3e:c3:c4:11:3e:d1:76:a8:a1:df:49:9d:b6:5e:44:a5:8b:
         01:a4:f6:22:e0:bf:56:20:51:7e:04:93:0b:2b:08:4e:38:ba:
         cd:7e:37:0d:05:07:d7:e5:68:77:f8:99:31:27:f7:f6:0d:36:
         2f:77:15:68:49:ea:44:f2:8a:67:28:43:57:cc:68:1c:e4:d5:
         1b:09:21:49:7d:aa:63:2d:ff:c1:c9:9c:12:c2:39:ad:b2:52:
         04:a8:ef:4e:11:24:f4:71:0f:e6:dc:74:e2:e4:c2:93:44:3c:
         1f:1c:0b:62:6c:f9:d6:46:79:bc:38:cf:16:01:49:bc:7b:62:
         4c:ea:1b:35:a8:50:10:26:30:1e:d8:b7:45:25:47:9c:d1:6f:
         d8:ca:1c:68:f2:e4:e1:a2:51:1d:dc:cc:aa:24:d4:55:c0:8a:
         70:eb:18:6a:08:14:ca:b9:6b:75:4b:f7:cd:3b:59:7a:b8:65:
         2a:80:1d:01:5b:fa:90:a4:48:fb:53:5a:65:29:bd:3a:7e:55:
         85:55:cd:ba
-----BEGIN CERTIFICATE-----
MIIEIjCCAwqgAwIBAgIEEAAA8TANBgkqhkiG9w0BAQUFADBEMQswCQYDVQQGEwJE
RTEPMA0GA1UECAwGSGVzc2VuMRQwEgYDVQQKDAtwcml2YWN5aWRlYTEOMAwGA1UE
AwwFQ0EwMDEwHhcNMTYwOTI3MjAwMjAzWhcNMTcwOTI3MjAwMjAzWjBQMQ8wDQYD
VQQLDAZyZWFsbTExEjAQBgNVBAMMCWNvcm5lbGl1czEpMCcGCSqGSIb3DQEJARYa
dXNlckBsb2NhbGhvc3QubG9jYWxkb21haW4wggEiMA0GCSqGSIb3DQEBAQUAA4IB
DwAwggEKAoIBAQC9s/4XqGZy9GPxAIb6ugL1/TIeE358vKMKXCLhhHqUuIYcviJG
S2XEeV21jBYK2TdbgXWHxy4s5TOd7AgcZu08BUX4ei4syNzESfnSWkTNbdB7NwKq
2tauX7vlDlAzyryWs/DHoetlcJNXgA+RKLG5EoIXgUUA1I7dxnRMJuge0vB3OEVo
EpfuLkFRHlpoWd+uxi56scezSG2MrKHa43COKHJkfOUpAOI3ZubrKf1VuuG/RuYZ
HdS/rciCX/DaqO1DEjMkrYOZ70eLsWSY/HAmeTX0O4gR8d8e58smJQu32pV1cns0
2Z1FFHpyjT8GaUbtyh9F5Llb3qAETp/9PD1nAgMBAAGjggEOMIIBCjALBgNVHQ8E
BAMCBaAwCQYDVR0TBAIwADARBglghkgBhvhCAQEEBAMCBkAwMwYJYIZIAYb4QgEN
BCYWJE9wZW5TU0wgR2VuZXJhdGVkIFNlcnZlciBDZXJ0aWZpY2F0ZTAdBgNVHQ4E
FgQUYQ4Te1VsFSVCQ8gjXkRACC4lRAQwdAYDVR0jBG0wa4AU9KfAzJFGr2TzkfIn
+Miyb4qHMnOhSKRGMEQxCzAJBgNVBAYTAkRFMQ8wDQYDVQQIDAZIZXNzZW4xFDAS
BgNVBAoMC3ByaXZhY3lpZGVhMQ4wDAYDVQQDDAVDQTAwMYIJAPvI66yDzRIHMBMG
A1UdJQQMMAoGCCsGAQUFBwMBMA0GCSqGSIb3DQEBBQUAA4IBAQA9bI4IxU5+fhWu
IHK5Hzz5WY6JawPYpgXWUUk5AtroX1NOy5FgCtX4Cw3flcdTFWa94H51fAWsPsPE
ET7Rdqih30mdtl5EpYsBpPYi4L9WIFF+BJMLKwhOOLrNfjcNBQfX5Wh3+JkxJ/f2
DTYvdxVoSepE8opnKENXzGgc5NUbCSFJfapjLf/ByZwSwjmtslIEqO9OEST0cQ/m
3HTi5MKTRDwfHAtibPnWRnm8OM8WAUm8e2JM6hs1qFAQJjAe2LdFJUec0W/Yyhxo
8uTholEd3MyqJNRVwIpw6xhqCBTKuWt1S/fNO1l6uGUqgB0BW/qQpEj7U1plKb06
flWFVc26
-----END CERTIFICATE-----
